
AVR_Drivers.elf:     file format elf32-avr

Sections:
Idx Name          Size      VMA       LMA       File off  Algn
  0 .text         00001132  00000000  00000000  00000094  2**1
                  CONTENTS, ALLOC, LOAD, READONLY, CODE
  1 .data         00000096  00800060  00001132  000011c6  2**0
                  CONTENTS, ALLOC, LOAD, DATA
  2 .bss          00000021  008000f6  008000f6  0000125c  2**0
                  ALLOC
  3 .comment      00000030  00000000  00000000  0000125c  2**0
                  CONTENTS, READONLY
  4 .note.gnu.avr.deviceinfo 0000003c  00000000  00000000  0000128c  2**2
                  CONTENTS, READONLY
  5 .debug_info   000004e6  00000000  00000000  000012c8  2**0
                  CONTENTS, READONLY, DEBUGGING
  6 .debug_abbrev 000004a3  00000000  00000000  000017ae  2**0
                  CONTENTS, READONLY, DEBUGGING
  7 .debug_line   00000115  00000000  00000000  00001c51  2**0
                  CONTENTS, READONLY, DEBUGGING
  8 .debug_str    00000196  00000000  00000000  00001d66  2**0
                  CONTENTS, READONLY, DEBUGGING

Disassembly of section .text:

00000000 <__vectors>:
       0:	0c 94 38 00 	jmp	0x70	; 0x70 <__ctors_end>
       4:	0c 94 2b 05 	jmp	0xa56	; 0xa56 <__vector_1>
       8:	0c 94 54 05 	jmp	0xaa8	; 0xaa8 <__vector_2>
       c:	0c 94 7d 05 	jmp	0xafa	; 0xafa <__vector_3>
      10:	0c 94 55 00 	jmp	0xaa	; 0xaa <__bad_interrupt>
      14:	0c 94 55 00 	jmp	0xaa	; 0xaa <__bad_interrupt>
      18:	0c 94 d0 06 	jmp	0xda0	; 0xda0 <__vector_6>
      1c:	0c 94 7e 06 	jmp	0xcfc	; 0xcfc <__vector_7>
      20:	0c 94 a7 06 	jmp	0xd4e	; 0xd4e <__vector_8>
      24:	0c 94 55 06 	jmp	0xcaa	; 0xcaa <__vector_9>
      28:	0c 94 2c 06 	jmp	0xc58	; 0xc58 <__vector_10>
      2c:	0c 94 03 06 	jmp	0xc06	; 0xc06 <__vector_11>
      30:	0c 94 55 00 	jmp	0xaa	; 0xaa <__bad_interrupt>
      34:	0c 94 87 07 	jmp	0xf0e	; 0xf0e <__vector_13>
      38:	0c 94 b0 07 	jmp	0xf60	; 0xf60 <__vector_14>
      3c:	0c 94 5e 07 	jmp	0xebc	; 0xebc <__vector_15>
      40:	0c 94 8a 03 	jmp	0x714	; 0x714 <__vector_16>
      44:	0c 94 55 00 	jmp	0xaa	; 0xaa <__bad_interrupt>
      48:	0c 94 55 00 	jmp	0xaa	; 0xaa <__bad_interrupt>
      4c:	0c 94 55 00 	jmp	0xaa	; 0xaa <__bad_interrupt>
      50:	0c 94 55 00 	jmp	0xaa	; 0xaa <__bad_interrupt>
      54:	36 07       	cpc	r19, r22
      56:	38 07       	cpc	r19, r24
      58:	3b 07       	cpc	r19, r27
      5a:	3d 07       	cpc	r19, r29
      5c:	3f 07       	cpc	r19, r31
      5e:	41 07       	cpc	r20, r17
      60:	43 07       	cpc	r20, r19
      62:	45 07       	cpc	r20, r21
      64:	47 07       	cpc	r20, r23
      66:	49 07       	cpc	r20, r25
      68:	4b 07       	cpc	r20, r27
      6a:	4b 07       	cpc	r20, r27
      6c:	4d 07       	cpc	r20, r29
      6e:	4d 07       	cpc	r20, r29

00000070 <__ctors_end>:
      70:	11 24       	eor	r1, r1
      72:	1f be       	out	0x3f, r1	; 63
      74:	cf e5       	ldi	r28, 0x5F	; 95
      76:	d8 e0       	ldi	r29, 0x08	; 8
      78:	de bf       	out	0x3e, r29	; 62
      7a:	cd bf       	out	0x3d, r28	; 61

0000007c <__do_copy_data>:
      7c:	10 e0       	ldi	r17, 0x00	; 0
      7e:	a0 e6       	ldi	r26, 0x60	; 96
      80:	b0 e0       	ldi	r27, 0x00	; 0
      82:	e2 e3       	ldi	r30, 0x32	; 50
      84:	f1 e1       	ldi	r31, 0x11	; 17
      86:	02 c0       	rjmp	.+4      	; 0x8c <__do_copy_data+0x10>
      88:	05 90       	lpm	r0, Z+
      8a:	0d 92       	st	X+, r0
      8c:	a6 3f       	cpi	r26, 0xF6	; 246
      8e:	b1 07       	cpc	r27, r17
      90:	d9 f7       	brne	.-10     	; 0x88 <__do_copy_data+0xc>

00000092 <__do_clear_bss>:
      92:	21 e0       	ldi	r18, 0x01	; 1
      94:	a6 ef       	ldi	r26, 0xF6	; 246
      96:	b0 e0       	ldi	r27, 0x00	; 0
      98:	01 c0       	rjmp	.+2      	; 0x9c <.do_clear_bss_start>

0000009a <.do_clear_bss_loop>:
      9a:	1d 92       	st	X+, r1

0000009c <.do_clear_bss_start>:
      9c:	a7 31       	cpi	r26, 0x17	; 23
      9e:	b2 07       	cpc	r27, r18
      a0:	e1 f7       	brne	.-8      	; 0x9a <.do_clear_bss_loop>
      a2:	0e 94 d4 02 	call	0x5a8	; 0x5a8 <main>
      a6:	0c 94 97 08 	jmp	0x112e	; 0x112e <_exit>

000000aa <__bad_interrupt>:
      aa:	0c 94 00 00 	jmp	0	; 0x0 <__vectors>

000000ae <LCD_SendCommand>:
      ae:	68 2f       	mov	r22, r24
      b0:	82 e0       	ldi	r24, 0x02	; 2
      b2:	0e 94 08 05 	call	0xa10	; 0xa10 <DIO_WritePort>
      b6:	60 e0       	ldi	r22, 0x00	; 0
      b8:	85 e0       	ldi	r24, 0x05	; 5
      ba:	0e 94 87 04 	call	0x90e	; 0x90e <DIO_WritePin>
      be:	60 e0       	ldi	r22, 0x00	; 0
      c0:	86 e0       	ldi	r24, 0x06	; 6
      c2:	0e 94 87 04 	call	0x90e	; 0x90e <DIO_WritePin>
      c6:	61 e0       	ldi	r22, 0x01	; 1
      c8:	87 e0       	ldi	r24, 0x07	; 7
      ca:	0e 94 87 04 	call	0x90e	; 0x90e <DIO_WritePin>
      ce:	8f ec       	ldi	r24, 0xCF	; 207
      d0:	97 e0       	ldi	r25, 0x07	; 7
      d2:	01 97       	sbiw	r24, 0x01	; 1
      d4:	f1 f7       	brne	.-4      	; 0xd2 <LCD_SendCommand+0x24>
      d6:	00 c0       	rjmp	.+0      	; 0xd8 <LCD_SendCommand+0x2a>
      d8:	00 00       	nop
      da:	60 e0       	ldi	r22, 0x00	; 0
      dc:	87 e0       	ldi	r24, 0x07	; 7
      de:	0e 94 87 04 	call	0x90e	; 0x90e <DIO_WritePin>
      e2:	8f ec       	ldi	r24, 0xCF	; 207
      e4:	97 e0       	ldi	r25, 0x07	; 7
      e6:	01 97       	sbiw	r24, 0x01	; 1
      e8:	f1 f7       	brne	.-4      	; 0xe6 <LCD_SendCommand+0x38>
      ea:	00 c0       	rjmp	.+0      	; 0xec <LCD_SendCommand+0x3e>
      ec:	00 00       	nop
      ee:	08 95       	ret

000000f0 <LCD_SendData>:
      f0:	68 2f       	mov	r22, r24
      f2:	82 e0       	ldi	r24, 0x02	; 2
      f4:	0e 94 08 05 	call	0xa10	; 0xa10 <DIO_WritePort>
      f8:	61 e0       	ldi	r22, 0x01	; 1
      fa:	85 e0       	ldi	r24, 0x05	; 5
      fc:	0e 94 87 04 	call	0x90e	; 0x90e <DIO_WritePin>
     100:	60 e0       	ldi	r22, 0x00	; 0
     102:	86 e0       	ldi	r24, 0x06	; 6
     104:	0e 94 87 04 	call	0x90e	; 0x90e <DIO_WritePin>
     108:	61 e0       	ldi	r22, 0x01	; 1
     10a:	87 e0       	ldi	r24, 0x07	; 7
     10c:	0e 94 87 04 	call	0x90e	; 0x90e <DIO_WritePin>
     110:	8f ec       	ldi	r24, 0xCF	; 207
     112:	97 e0       	ldi	r25, 0x07	; 7
     114:	01 97       	sbiw	r24, 0x01	; 1
     116:	f1 f7       	brne	.-4      	; 0x114 <LCD_SendData+0x24>
     118:	00 c0       	rjmp	.+0      	; 0x11a <LCD_SendData+0x2a>
     11a:	00 00       	nop
     11c:	60 e0       	ldi	r22, 0x00	; 0
     11e:	87 e0       	ldi	r24, 0x07	; 7
     120:	0e 94 87 04 	call	0x90e	; 0x90e <DIO_WritePin>
     124:	8f ec       	ldi	r24, 0xCF	; 207
     126:	97 e0       	ldi	r25, 0x07	; 7
     128:	01 97       	sbiw	r24, 0x01	; 1
     12a:	f1 f7       	brne	.-4      	; 0x128 <LCD_SendData+0x38>
     12c:	00 c0       	rjmp	.+0      	; 0x12e <LCD_SendData+0x3e>
     12e:	00 00       	nop
     130:	08 95       	ret

00000132 <LCD_Init>:
     132:	8f e3       	ldi	r24, 0x3F	; 63
     134:	9c e9       	ldi	r25, 0x9C	; 156
     136:	01 97       	sbiw	r24, 0x01	; 1
     138:	f1 f7       	brne	.-4      	; 0x136 <LCD_Init+0x4>
     13a:	00 c0       	rjmp	.+0      	; 0x13c <LCD_Init+0xa>
     13c:	00 00       	nop
     13e:	88 e3       	ldi	r24, 0x38	; 56
     140:	0e 94 57 00 	call	0xae	; 0xae <LCD_SendCommand>
     144:	8c e0       	ldi	r24, 0x0C	; 12
     146:	0e 94 57 00 	call	0xae	; 0xae <LCD_SendCommand>
     14a:	81 e0       	ldi	r24, 0x01	; 1
     14c:	0e 94 57 00 	call	0xae	; 0xae <LCD_SendCommand>
     150:	8f e9       	ldi	r24, 0x9F	; 159
     152:	9f e0       	ldi	r25, 0x0F	; 15
     154:	01 97       	sbiw	r24, 0x01	; 1
     156:	f1 f7       	brne	.-4      	; 0x154 <LCD_Init+0x22>
     158:	00 c0       	rjmp	.+0      	; 0x15a <LCD_Init+0x28>
     15a:	00 00       	nop
     15c:	08 95       	ret

0000015e <LCD_WriteChar>:
     15e:	0c 94 78 00 	jmp	0xf0	; 0xf0 <LCD_SendData>

00000162 <LCD_WriteString>:
     162:	0f 93       	push	r16
     164:	1f 93       	push	r17
     166:	cf 93       	push	r28
     168:	8c 01       	movw	r16, r24
     16a:	c0 e0       	ldi	r28, 0x00	; 0
     16c:	f8 01       	movw	r30, r16
     16e:	ec 0f       	add	r30, r28
     170:	f1 1d       	adc	r31, r1
     172:	80 81       	ld	r24, Z
     174:	88 23       	and	r24, r24
     176:	21 f0       	breq	.+8      	; 0x180 <LCD_WriteString+0x1e>
     178:	0e 94 78 00 	call	0xf0	; 0xf0 <LCD_SendData>
     17c:	cf 5f       	subi	r28, 0xFF	; 255
     17e:	f6 cf       	rjmp	.-20     	; 0x16c <LCD_WriteString+0xa>
     180:	cf 91       	pop	r28
     182:	1f 91       	pop	r17
     184:	0f 91       	pop	r16
     186:	08 95       	ret

00000188 <LCD_GoTo>:
     188:	81 30       	cpi	r24, 0x01	; 1
     18a:	39 f0       	breq	.+14     	; 0x19a <LCD_GoTo+0x12>
     18c:	58 f0       	brcs	.+22     	; 0x1a4 <LCD_GoTo+0x1c>
     18e:	82 30       	cpi	r24, 0x02	; 2
     190:	31 f0       	breq	.+12     	; 0x19e <LCD_GoTo+0x16>
     192:	83 30       	cpi	r24, 0x03	; 3
     194:	31 f4       	brne	.+12     	; 0x1a2 <LCD_GoTo+0x1a>
     196:	6c 5a       	subi	r22, 0xAC	; 172
     198:	05 c0       	rjmp	.+10     	; 0x1a4 <LCD_GoTo+0x1c>
     19a:	60 5c       	subi	r22, 0xC0	; 192
     19c:	03 c0       	rjmp	.+6      	; 0x1a4 <LCD_GoTo+0x1c>
     19e:	6c 5e       	subi	r22, 0xEC	; 236
     1a0:	01 c0       	rjmp	.+2      	; 0x1a4 <LCD_GoTo+0x1c>
     1a2:	60 e0       	ldi	r22, 0x00	; 0
     1a4:	86 2f       	mov	r24, r22
     1a6:	80 68       	ori	r24, 0x80	; 128
     1a8:	0c 94 57 00 	jmp	0xae	; 0xae <LCD_SendCommand>

000001ac <LCD_WriteNum>:
     1ac:	4f 92       	push	r4
     1ae:	5f 92       	push	r5
     1b0:	6f 92       	push	r6
     1b2:	7f 92       	push	r7
     1b4:	af 92       	push	r10
     1b6:	bf 92       	push	r11
     1b8:	cf 92       	push	r12
     1ba:	df 92       	push	r13
     1bc:	ef 92       	push	r14
     1be:	ff 92       	push	r15
     1c0:	1f 93       	push	r17
     1c2:	cf 93       	push	r28
     1c4:	df 93       	push	r29
     1c6:	cd b7       	in	r28, 0x3d	; 61
     1c8:	de b7       	in	r29, 0x3e	; 62
     1ca:	2a 97       	sbiw	r28, 0x0a	; 10
     1cc:	0f b6       	in	r0, 0x3f	; 63
     1ce:	f8 94       	cli
     1d0:	de bf       	out	0x3e, r29	; 62
     1d2:	0f be       	out	0x3f, r0	; 63
     1d4:	cd bf       	out	0x3d, r28	; 61
     1d6:	6b 01       	movw	r12, r22
     1d8:	7c 01       	movw	r14, r24
     1da:	61 15       	cp	r22, r1
     1dc:	71 05       	cpc	r23, r1
     1de:	81 05       	cpc	r24, r1
     1e0:	91 05       	cpc	r25, r1
     1e2:	b1 f4       	brne	.+44     	; 0x210 <LCD_WriteNum+0x64>
     1e4:	80 e3       	ldi	r24, 0x30	; 48
     1e6:	2a 96       	adiw	r28, 0x0a	; 10
     1e8:	0f b6       	in	r0, 0x3f	; 63
     1ea:	f8 94       	cli
     1ec:	de bf       	out	0x3e, r29	; 62
     1ee:	0f be       	out	0x3f, r0	; 63
     1f0:	cd bf       	out	0x3d, r28	; 61
     1f2:	df 91       	pop	r29
     1f4:	cf 91       	pop	r28
     1f6:	1f 91       	pop	r17
     1f8:	ff 90       	pop	r15
     1fa:	ef 90       	pop	r14
     1fc:	df 90       	pop	r13
     1fe:	cf 90       	pop	r12
     200:	bf 90       	pop	r11
     202:	af 90       	pop	r10
     204:	7f 90       	pop	r7
     206:	6f 90       	pop	r6
     208:	5f 90       	pop	r5
     20a:	4f 90       	pop	r4
     20c:	0c 94 78 00 	jmp	0xf0	; 0xf0 <LCD_SendData>
     210:	97 ff       	sbrs	r25, 7
     212:	0b c0       	rjmp	.+22     	; 0x22a <LCD_WriteNum+0x7e>
     214:	8d e2       	ldi	r24, 0x2D	; 45
     216:	0e 94 78 00 	call	0xf0	; 0xf0 <LCD_SendData>
     21a:	f0 94       	com	r15
     21c:	e0 94       	com	r14
     21e:	d0 94       	com	r13
     220:	c0 94       	com	r12
     222:	c1 1c       	adc	r12, r1
     224:	d1 1c       	adc	r13, r1
     226:	e1 1c       	adc	r14, r1
     228:	f1 1c       	adc	r15, r1
     22a:	10 e0       	ldi	r17, 0x00	; 0
     22c:	9a e0       	ldi	r25, 0x0A	; 10
     22e:	49 2e       	mov	r4, r25
     230:	51 2c       	mov	r5, r1
     232:	61 2c       	mov	r6, r1
     234:	71 2c       	mov	r7, r1
     236:	aa 24       	eor	r10, r10
     238:	a3 94       	inc	r10
     23a:	b1 2c       	mov	r11, r1
     23c:	ac 0e       	add	r10, r28
     23e:	bd 1e       	adc	r11, r29
     240:	a1 0e       	add	r10, r17
     242:	b1 1c       	adc	r11, r1
     244:	c7 01       	movw	r24, r14
     246:	b6 01       	movw	r22, r12
     248:	a3 01       	movw	r20, r6
     24a:	92 01       	movw	r18, r4
     24c:	0e 94 5a 08 	call	0x10b4	; 0x10b4 <__divmodsi4>
     250:	60 5d       	subi	r22, 0xD0	; 208
     252:	f5 01       	movw	r30, r10
     254:	60 83       	st	Z, r22
     256:	69 01       	movw	r12, r18
     258:	7a 01       	movw	r14, r20
     25a:	1f 5f       	subi	r17, 0xFF	; 255
     25c:	c1 14       	cp	r12, r1
     25e:	d1 04       	cpc	r13, r1
     260:	e1 04       	cpc	r14, r1
     262:	f1 04       	cpc	r15, r1
     264:	41 f7       	brne	.-48     	; 0x236 <LCD_WriteNum+0x8a>
     266:	11 23       	and	r17, r17
     268:	41 f0       	breq	.+16     	; 0x27a <LCD_WriteNum+0xce>
     26a:	fe 01       	movw	r30, r28
     26c:	e1 0f       	add	r30, r17
     26e:	f1 1d       	adc	r31, r1
     270:	80 81       	ld	r24, Z
     272:	0e 94 78 00 	call	0xf0	; 0xf0 <LCD_SendData>
     276:	11 50       	subi	r17, 0x01	; 1
     278:	f6 cf       	rjmp	.-20     	; 0x266 <LCD_WriteNum+0xba>
     27a:	2a 96       	adiw	r28, 0x0a	; 10
     27c:	0f b6       	in	r0, 0x3f	; 63
     27e:	f8 94       	cli
     280:	de bf       	out	0x3e, r29	; 62
     282:	0f be       	out	0x3f, r0	; 63
     284:	cd bf       	out	0x3d, r28	; 61
     286:	df 91       	pop	r29
     288:	cf 91       	pop	r28
     28a:	1f 91       	pop	r17
     28c:	ff 90       	pop	r15
     28e:	ef 90       	pop	r14
     290:	df 90       	pop	r13
     292:	cf 90       	pop	r12
     294:	bf 90       	pop	r11
     296:	af 90       	pop	r10
     298:	7f 90       	pop	r7
     29a:	6f 90       	pop	r6
     29c:	5f 90       	pop	r5
     29e:	4f 90       	pop	r4
     2a0:	08 95       	ret

000002a2 <LM35_TempRead>:
     2a2:	80 e0       	ldi	r24, 0x00	; 0
     2a4:	0e 94 7c 03 	call	0x6f8	; 0x6f8 <ADC_Read>
     2a8:	9c 01       	movw	r18, r24
     2aa:	a8 e8       	ldi	r26, 0x88	; 136
     2ac:	b3 e1       	ldi	r27, 0x13	; 19
     2ae:	0e 94 7f 08 	call	0x10fe	; 0x10fe <__umulhisi3>
     2b2:	dc 01       	movw	r26, r24
     2b4:	cb 01       	movw	r24, r22
     2b6:	2a e0       	ldi	r18, 0x0A	; 10
     2b8:	b6 95       	lsr	r27
     2ba:	a7 95       	ror	r26
     2bc:	97 95       	ror	r25
     2be:	87 95       	ror	r24
     2c0:	2a 95       	dec	r18
     2c2:	d1 f7       	brne	.-12     	; 0x2b8 <LM35_TempRead+0x16>
     2c4:	08 95       	ret

000002c6 <MPX4110_PressureRead>:
     2c6:	81 e0       	ldi	r24, 0x01	; 1
     2c8:	0e 94 7c 03 	call	0x6f8	; 0x6f8 <ADC_Read>
     2cc:	9c 01       	movw	r18, r24
     2ce:	27 53       	subi	r18, 0x37	; 55
     2d0:	31 09       	sbc	r19, r1
     2d2:	a8 ee       	ldi	r26, 0xE8	; 232
     2d4:	b3 e0       	ldi	r27, 0x03	; 3
     2d6:	0e 94 7f 08 	call	0x10fe	; 0x10fe <__umulhisi3>
     2da:	29 e9       	ldi	r18, 0x99	; 153
     2dc:	33 e0       	ldi	r19, 0x03	; 3
     2de:	40 e0       	ldi	r20, 0x00	; 0
     2e0:	50 e0       	ldi	r21, 0x00	; 0
     2e2:	0e 94 38 08 	call	0x1070	; 0x1070 <__udivmodsi4>
     2e6:	c9 01       	movw	r24, r18
     2e8:	8a 56       	subi	r24, 0x6A	; 106
     2ea:	9f 4f       	sbci	r25, 0xFF	; 255
     2ec:	08 95       	ret

000002ee <Servo_Init>:
     2ee:	62 e0       	ldi	r22, 0x02	; 2
     2f0:	83 e0       	ldi	r24, 0x03	; 3
     2f2:	0e 94 a6 05 	call	0xb4c	; 0xb4c <Timer1_Init>
     2f6:	82 e0       	ldi	r24, 0x02	; 2
     2f8:	0e 94 e2 05 	call	0xbc4	; 0xbc4 <Timer1_OCRB_Mode>
     2fc:	8f e1       	ldi	r24, 0x1F	; 31
     2fe:	9e e4       	ldi	r25, 0x4E	; 78
     300:	0e 94 00 06 	call	0xc00	; 0xc00 <Timer1_ICR_Set>
     304:	87 ee       	ldi	r24, 0xE7	; 231
     306:	93 e0       	ldi	r25, 0x03	; 3
     308:	0c 94 fd 05 	jmp	0xbfa	; 0xbfa <Timer1_OCRB_Set>

0000030c <Servo_SetPosition>:
     30c:	85 3b       	cpi	r24, 0xB5	; 181
     30e:	08 f0       	brcs	.+2      	; 0x312 <Servo_SetPosition+0x6>
     310:	84 5b       	subi	r24, 0xB4	; 180
     312:	28 2f       	mov	r18, r24
     314:	30 e0       	ldi	r19, 0x00	; 0
     316:	a8 ee       	ldi	r26, 0xE8	; 232
     318:	b3 e0       	ldi	r27, 0x03	; 3
     31a:	0e 94 7f 08 	call	0x10fe	; 0x10fe <__umulhisi3>
     31e:	24 eb       	ldi	r18, 0xB4	; 180
     320:	30 e0       	ldi	r19, 0x00	; 0
     322:	40 e0       	ldi	r20, 0x00	; 0
     324:	50 e0       	ldi	r21, 0x00	; 0
     326:	0e 94 38 08 	call	0x1070	; 0x1070 <__udivmodsi4>
     32a:	c9 01       	movw	r24, r18
     32c:	89 51       	subi	r24, 0x19	; 25
     32e:	9c 4f       	sbci	r25, 0xFC	; 252
     330:	0c 94 fd 05 	jmp	0xbfa	; 0xbfa <Timer1_OCRB_Set>

00000334 <IntToString>:
     334:	cf 93       	push	r28
     336:	df 93       	push	r29
     338:	ab 01       	movw	r20, r22
     33a:	20 e0       	ldi	r18, 0x00	; 0
     33c:	3a e0       	ldi	r19, 0x0A	; 10
     33e:	e2 2f       	mov	r30, r18
     340:	f0 e0       	ldi	r31, 0x00	; 0
     342:	88 23       	and	r24, r24
     344:	49 f0       	breq	.+18     	; 0x358 <IntToString+0x24>
     346:	e4 0f       	add	r30, r20
     348:	f5 1f       	adc	r31, r21
     34a:	63 2f       	mov	r22, r19
     34c:	0e 94 18 08 	call	0x1030	; 0x1030 <__udivmodqi4>
     350:	90 5d       	subi	r25, 0xD0	; 208
     352:	90 83       	st	Z, r25
     354:	2f 5f       	subi	r18, 0xFF	; 255
     356:	f3 cf       	rjmp	.-26     	; 0x33e <IntToString+0xa>
     358:	92 2f       	mov	r25, r18
     35a:	96 95       	lsr	r25
     35c:	e4 0f       	add	r30, r20
     35e:	f5 1f       	adc	r31, r21
     360:	ef 01       	movw	r28, r30
     362:	34 2f       	mov	r19, r20
     364:	da 01       	movw	r26, r20
     366:	8a 2f       	mov	r24, r26
     368:	83 1b       	sub	r24, r19
     36a:	89 17       	cp	r24, r25
     36c:	28 f4       	brcc	.+10     	; 0x378 <IntToString+0x44>
     36e:	8c 91       	ld	r24, X
     370:	4a 91       	ld	r20, -Y
     372:	4d 93       	st	X+, r20
     374:	88 83       	st	Y, r24
     376:	f7 cf       	rjmp	.-18     	; 0x366 <IntToString+0x32>
     378:	10 82       	st	Z, r1
     37a:	82 2f       	mov	r24, r18
     37c:	df 91       	pop	r29
     37e:	cf 91       	pop	r28
     380:	08 95       	ret

00000382 <check>:
     382:	ef 92       	push	r14
     384:	ff 92       	push	r15
     386:	0f 93       	push	r16
     388:	1f 93       	push	r17
     38a:	cf 93       	push	r28
     38c:	df 93       	push	r29
     38e:	cd b7       	in	r28, 0x3d	; 61
     390:	de b7       	in	r29, 0x3e	; 62
     392:	64 97       	sbiw	r28, 0x14	; 20
     394:	0f b6       	in	r0, 0x3f	; 63
     396:	f8 94       	cli
     398:	de bf       	out	0x3e, r29	; 62
     39a:	0f be       	out	0x3f, r0	; 63
     39c:	cd bf       	out	0x3d, r28	; 61
     39e:	8c 01       	movw	r16, r24
     3a0:	f6 2e       	mov	r15, r22
     3a2:	60 e6       	ldi	r22, 0x60	; 96
     3a4:	70 e0       	ldi	r23, 0x00	; 0
     3a6:	0e 94 8e 08 	call	0x111c	; 0x111c <strcmp>
     3aa:	89 2b       	or	r24, r25
     3ac:	21 f4       	brne	.+8      	; 0x3b6 <check+0x34>
     3ae:	8f 2d       	mov	r24, r15
     3b0:	0e 94 86 01 	call	0x30c	; 0x30c <Servo_SetPosition>
     3b4:	ad c0       	rjmp	.+346    	; 0x510 <__LOCK_REGION_LENGTH__+0x110>
     3b6:	66 e6       	ldi	r22, 0x66	; 102
     3b8:	70 e0       	ldi	r23, 0x00	; 0
     3ba:	c8 01       	movw	r24, r16
     3bc:	0e 94 8e 08 	call	0x111c	; 0x111c <strcmp>
     3c0:	89 2b       	or	r24, r25
     3c2:	79 f4       	brne	.+30     	; 0x3e2 <check+0x60>
     3c4:	68 e0       	ldi	r22, 0x08	; 8
     3c6:	83 e0       	ldi	r24, 0x03	; 3
     3c8:	0e 94 c4 00 	call	0x188	; 0x188 <LCD_GoTo>
     3cc:	6f 2d       	mov	r22, r15
     3ce:	70 e0       	ldi	r23, 0x00	; 0
     3d0:	80 e0       	ldi	r24, 0x00	; 0
     3d2:	90 e0       	ldi	r25, 0x00	; 0
     3d4:	0e 94 d6 00 	call	0x1ac	; 0x1ac <LCD_WriteNum>
     3d8:	8e ec       	ldi	r24, 0xCE	; 206
     3da:	90 e0       	ldi	r25, 0x00	; 0
     3dc:	0e 94 b1 00 	call	0x162	; 0x162 <LCD_WriteString>
     3e0:	97 c0       	rjmp	.+302    	; 0x510 <__LOCK_REGION_LENGTH__+0x110>
     3e2:	6a e6       	ldi	r22, 0x6A	; 106
     3e4:	70 e0       	ldi	r23, 0x00	; 0
     3e6:	c8 01       	movw	r24, r16
     3e8:	0e 94 8e 08 	call	0x111c	; 0x111c <strcmp>
     3ec:	89 2b       	or	r24, r25
     3ee:	11 f4       	brne	.+4      	; 0x3f4 <check+0x72>
     3f0:	61 e0       	ldi	r22, 0x01	; 1
     3f2:	08 c0       	rjmp	.+16     	; 0x404 <__LOCK_REGION_LENGTH__+0x4>
     3f4:	60 e7       	ldi	r22, 0x70	; 112
     3f6:	70 e0       	ldi	r23, 0x00	; 0
     3f8:	c8 01       	movw	r24, r16
     3fa:	0e 94 8e 08 	call	0x111c	; 0x111c <strcmp>
     3fe:	89 2b       	or	r24, r25
     400:	31 f4       	brne	.+12     	; 0x40e <__LOCK_REGION_LENGTH__+0xe>
     402:	60 e0       	ldi	r22, 0x00	; 0
     404:	88 e0       	ldi	r24, 0x08	; 8
     406:	8f 0d       	add	r24, r15
     408:	0e 94 87 04 	call	0x90e	; 0x90e <DIO_WritePin>
     40c:	81 c0       	rjmp	.+258    	; 0x510 <__LOCK_REGION_LENGTH__+0x110>
     40e:	67 e7       	ldi	r22, 0x77	; 119
     410:	70 e0       	ldi	r23, 0x00	; 0
     412:	c8 01       	movw	r24, r16
     414:	0e 94 8e 08 	call	0x111c	; 0x111c <strcmp>
     418:	89 2b       	or	r24, r25
     41a:	c1 f5       	brne	.+112    	; 0x48c <__LOCK_REGION_LENGTH__+0x8c>
     41c:	8e 01       	movw	r16, r28
     41e:	0f 5f       	subi	r16, 0xFF	; 255
     420:	1f 4f       	sbci	r17, 0xFF	; 255
     422:	84 e1       	ldi	r24, 0x14	; 20
     424:	f8 01       	movw	r30, r16
     426:	11 92       	st	Z+, r1
     428:	8a 95       	dec	r24
     42a:	e9 f7       	brne	.-6      	; 0x426 <__LOCK_REGION_LENGTH__+0x26>
     42c:	80 91 15 01 	lds	r24, 0x0115	; 0x800115 <temp>
     430:	90 91 16 01 	lds	r25, 0x0116	; 0x800116 <temp+0x1>
     434:	3a e0       	ldi	r19, 0x0A	; 10
     436:	e3 2e       	mov	r14, r19
     438:	f1 2c       	mov	r15, r1
     43a:	b7 01       	movw	r22, r14
     43c:	0e 94 24 08 	call	0x1048	; 0x1048 <__udivmodhi4>
     440:	86 2f       	mov	r24, r22
     442:	b8 01       	movw	r22, r16
     444:	0e 94 9a 01 	call	0x334	; 0x334 <IntToString>
     448:	28 2f       	mov	r18, r24
     44a:	30 e0       	ldi	r19, 0x00	; 0
     44c:	f8 01       	movw	r30, r16
     44e:	e2 0f       	add	r30, r18
     450:	f3 1f       	adc	r31, r19
     452:	8e e2       	ldi	r24, 0x2E	; 46
     454:	80 83       	st	Z, r24
     456:	fe 01       	movw	r30, r28
     458:	e2 0f       	add	r30, r18
     45a:	f3 1f       	adc	r31, r19
     45c:	80 91 15 01 	lds	r24, 0x0115	; 0x800115 <temp>
     460:	90 91 16 01 	lds	r25, 0x0116	; 0x800116 <temp+0x1>
     464:	b7 01       	movw	r22, r14
     466:	0e 94 24 08 	call	0x1048	; 0x1048 <__udivmodhi4>
     46a:	80 5d       	subi	r24, 0xD0	; 208
     46c:	82 83       	std	Z+2, r24	; 0x02
     46e:	fe 01       	movw	r30, r28
     470:	e2 0f       	add	r30, r18
     472:	f3 1f       	adc	r31, r19
     474:	13 82       	std	Z+3, r1	; 0x03
     476:	8c e7       	ldi	r24, 0x7C	; 124
     478:	90 e0       	ldi	r25, 0x00	; 0
     47a:	0e 94 fb 07 	call	0xff6	; 0xff6 <Uart_SendString>
     47e:	c8 01       	movw	r24, r16
     480:	0e 94 fb 07 	call	0xff6	; 0xff6 <Uart_SendString>
     484:	83 e4       	ldi	r24, 0x43	; 67
     486:	0e 94 51 07 	call	0xea2	; 0xea2 <Uart_Send>
     48a:	42 c0       	rjmp	.+132    	; 0x510 <__LOCK_REGION_LENGTH__+0x110>
     48c:	6b e8       	ldi	r22, 0x8B	; 139
     48e:	70 e0       	ldi	r23, 0x00	; 0
     490:	c8 01       	movw	r24, r16
     492:	0e 94 8e 08 	call	0x111c	; 0x111c <strcmp>
     496:	89 2b       	or	r24, r25
     498:	b9 f5       	brne	.+110    	; 0x508 <__LOCK_REGION_LENGTH__+0x108>
     49a:	8e 01       	movw	r16, r28
     49c:	0f 5f       	subi	r16, 0xFF	; 255
     49e:	1f 4f       	sbci	r17, 0xFF	; 255
     4a0:	84 e1       	ldi	r24, 0x14	; 20
     4a2:	f8 01       	movw	r30, r16
     4a4:	11 92       	st	Z+, r1
     4a6:	8a 95       	dec	r24
     4a8:	e9 f7       	brne	.-6      	; 0x4a4 <__LOCK_REGION_LENGTH__+0xa4>
     4aa:	80 91 13 01 	lds	r24, 0x0113	; 0x800113 <pres>
     4ae:	90 91 14 01 	lds	r25, 0x0114	; 0x800114 <pres+0x1>
     4b2:	2a e0       	ldi	r18, 0x0A	; 10
     4b4:	e2 2e       	mov	r14, r18
     4b6:	f1 2c       	mov	r15, r1
     4b8:	b7 01       	movw	r22, r14
     4ba:	0e 94 24 08 	call	0x1048	; 0x1048 <__udivmodhi4>
     4be:	86 2f       	mov	r24, r22
     4c0:	b8 01       	movw	r22, r16
     4c2:	0e 94 9a 01 	call	0x334	; 0x334 <IntToString>
     4c6:	28 2f       	mov	r18, r24
     4c8:	30 e0       	ldi	r19, 0x00	; 0
     4ca:	f8 01       	movw	r30, r16
     4cc:	e2 0f       	add	r30, r18
     4ce:	f3 1f       	adc	r31, r19
     4d0:	8e e2       	ldi	r24, 0x2E	; 46
     4d2:	80 83       	st	Z, r24
     4d4:	fe 01       	movw	r30, r28
     4d6:	e2 0f       	add	r30, r18
     4d8:	f3 1f       	adc	r31, r19
     4da:	80 91 13 01 	lds	r24, 0x0113	; 0x800113 <pres>
     4de:	90 91 14 01 	lds	r25, 0x0114	; 0x800114 <pres+0x1>
     4e2:	b7 01       	movw	r22, r14
     4e4:	0e 94 24 08 	call	0x1048	; 0x1048 <__udivmodhi4>
     4e8:	80 5d       	subi	r24, 0xD0	; 208
     4ea:	82 83       	std	Z+2, r24	; 0x02
     4ec:	fe 01       	movw	r30, r28
     4ee:	e2 0f       	add	r30, r18
     4f0:	f3 1f       	adc	r31, r19
     4f2:	13 82       	std	Z+3, r1	; 0x03
     4f4:	84 e9       	ldi	r24, 0x94	; 148
     4f6:	90 e0       	ldi	r25, 0x00	; 0
     4f8:	0e 94 fb 07 	call	0xff6	; 0xff6 <Uart_SendString>
     4fc:	c8 01       	movw	r24, r16
     4fe:	0e 94 fb 07 	call	0xff6	; 0xff6 <Uart_SendString>
     502:	80 ea       	ldi	r24, 0xA0	; 160
     504:	90 e0       	ldi	r25, 0x00	; 0
     506:	02 c0       	rjmp	.+4      	; 0x50c <__LOCK_REGION_LENGTH__+0x10c>
     508:	84 ea       	ldi	r24, 0xA4	; 164
     50a:	90 e0       	ldi	r25, 0x00	; 0
     50c:	0e 94 fb 07 	call	0xff6	; 0xff6 <Uart_SendString>
     510:	64 96       	adiw	r28, 0x14	; 20
     512:	0f b6       	in	r0, 0x3f	; 63
     514:	f8 94       	cli
     516:	de bf       	out	0x3e, r29	; 62
     518:	0f be       	out	0x3f, r0	; 63
     51a:	cd bf       	out	0x3d, r28	; 61
     51c:	df 91       	pop	r29
     51e:	cf 91       	pop	r28
     520:	1f 91       	pop	r17
     522:	0f 91       	pop	r16
     524:	ff 90       	pop	r15
     526:	ef 90       	pop	r14
     528:	08 95       	ret

0000052a <extract>:
     52a:	cf 93       	push	r28
     52c:	df 93       	push	r29
     52e:	cd b7       	in	r28, 0x3d	; 61
     530:	de b7       	in	r29, 0x3e	; 62
     532:	2a 97       	sbiw	r28, 0x0a	; 10
     534:	0f b6       	in	r0, 0x3f	; 63
     536:	f8 94       	cli
     538:	de bf       	out	0x3e, r29	; 62
     53a:	0f be       	out	0x3f, r0	; 63
     53c:	cd bf       	out	0x3d, r28	; 61
     53e:	ac 01       	movw	r20, r24
     540:	fe 01       	movw	r30, r28
     542:	31 96       	adiw	r30, 0x01	; 1
     544:	8a e0       	ldi	r24, 0x0A	; 10
     546:	df 01       	movw	r26, r30
     548:	1d 92       	st	X+, r1
     54a:	8a 95       	dec	r24
     54c:	e9 f7       	brne	.-6      	; 0x548 <extract+0x1e>
     54e:	90 e0       	ldi	r25, 0x00	; 0
     550:	29 2f       	mov	r18, r25
     552:	30 e0       	ldi	r19, 0x00	; 0
     554:	da 01       	movw	r26, r20
     556:	a2 0f       	add	r26, r18
     558:	b3 1f       	adc	r27, r19
     55a:	8c 91       	ld	r24, X
     55c:	68 2f       	mov	r22, r24
     55e:	6f 7d       	andi	r22, 0xDF	; 223
     560:	9f 5f       	subi	r25, 0xFF	; 255
     562:	df 01       	movw	r26, r30
     564:	a2 0f       	add	r26, r18
     566:	b3 1f       	adc	r27, r19
     568:	66 23       	and	r22, r22
     56a:	11 f0       	breq	.+4      	; 0x570 <extract+0x46>
     56c:	8c 93       	st	X, r24
     56e:	f0 cf       	rjmp	.-32     	; 0x550 <extract+0x26>
     570:	1c 92       	st	X, r1
     572:	da 01       	movw	r26, r20
     574:	a9 0f       	add	r26, r25
     576:	b1 1d       	adc	r27, r1
     578:	2c 91       	ld	r18, X
     57a:	22 23       	and	r18, r18
     57c:	49 f0       	breq	.+18     	; 0x590 <extract+0x66>
     57e:	66 0f       	add	r22, r22
     580:	86 2f       	mov	r24, r22
     582:	88 0f       	add	r24, r24
     584:	88 0f       	add	r24, r24
     586:	68 0f       	add	r22, r24
     588:	60 53       	subi	r22, 0x30	; 48
     58a:	62 0f       	add	r22, r18
     58c:	9f 5f       	subi	r25, 0xFF	; 255
     58e:	f1 cf       	rjmp	.-30     	; 0x572 <extract+0x48>
     590:	cf 01       	movw	r24, r30
     592:	0e 94 c1 01 	call	0x382	; 0x382 <check>
     596:	2a 96       	adiw	r28, 0x0a	; 10
     598:	0f b6       	in	r0, 0x3f	; 63
     59a:	f8 94       	cli
     59c:	de bf       	out	0x3e, r29	; 62
     59e:	0f be       	out	0x3f, r0	; 63
     5a0:	cd bf       	out	0x3d, r28	; 61
     5a2:	df 91       	pop	r29
     5a4:	cf 91       	pop	r28
     5a6:	08 95       	ret

000005a8 <main>:
     5a8:	cf 93       	push	r28
     5aa:	df 93       	push	r29
     5ac:	cd b7       	in	r28, 0x3d	; 61
     5ae:	de b7       	in	r29, 0x3e	; 62
     5b0:	c4 56       	subi	r28, 0x64	; 100
     5b2:	d1 09       	sbc	r29, r1
     5b4:	0f b6       	in	r0, 0x3f	; 63
     5b6:	f8 94       	cli
     5b8:	de bf       	out	0x3e, r29	; 62
     5ba:	0f be       	out	0x3f, r0	; 63
     5bc:	cd bf       	out	0x3d, r28	; 61
     5be:	8e 01       	movw	r16, r28
     5c0:	0f 5f       	subi	r16, 0xFF	; 255
     5c2:	1f 4f       	sbci	r17, 0xFF	; 255
     5c4:	84 e6       	ldi	r24, 0x64	; 100
     5c6:	f8 01       	movw	r30, r16
     5c8:	11 92       	st	Z+, r1
     5ca:	8a 95       	dec	r24
     5cc:	e9 f7       	brne	.-6      	; 0x5c8 <main+0x20>
     5ce:	78 94       	sei
     5d0:	0e 94 18 05 	call	0xa30	; 0xa30 <DIO_Init>
     5d4:	0e 94 99 00 	call	0x132	; 0x132 <LCD_Init>
     5d8:	0e 94 f9 06 	call	0xdf2	; 0xdf2 <Uart_Init>
     5dc:	0e 94 77 01 	call	0x2ee	; 0x2ee <Servo_Init>
     5e0:	66 e0       	ldi	r22, 0x06	; 6
     5e2:	80 e0       	ldi	r24, 0x00	; 0
     5e4:	0e 94 67 03 	call	0x6ce	; 0x6ce <ADC_Init>
     5e8:	86 eb       	ldi	r24, 0xB6	; 182
     5ea:	90 e0       	ldi	r25, 0x00	; 0
     5ec:	0e 94 b1 00 	call	0x162	; 0x162 <LCD_WriteString>
     5f0:	60 e1       	ldi	r22, 0x10	; 16
     5f2:	80 e0       	ldi	r24, 0x00	; 0
     5f4:	0e 94 c4 00 	call	0x188	; 0x188 <LCD_GoTo>
     5f8:	83 e4       	ldi	r24, 0x43	; 67
     5fa:	0e 94 af 00 	call	0x15e	; 0x15e <LCD_WriteChar>
     5fe:	60 e0       	ldi	r22, 0x00	; 0
     600:	81 e0       	ldi	r24, 0x01	; 1
     602:	0e 94 c4 00 	call	0x188	; 0x188 <LCD_GoTo>
     606:	8d eb       	ldi	r24, 0xBD	; 189
     608:	90 e0       	ldi	r25, 0x00	; 0
     60a:	0e 94 b1 00 	call	0x162	; 0x162 <LCD_WriteString>
     60e:	60 e1       	ldi	r22, 0x10	; 16
     610:	81 e0       	ldi	r24, 0x01	; 1
     612:	0e 94 c4 00 	call	0x188	; 0x188 <LCD_GoTo>
     616:	84 ec       	ldi	r24, 0xC4	; 196
     618:	90 e0       	ldi	r25, 0x00	; 0
     61a:	0e 94 b1 00 	call	0x162	; 0x162 <LCD_WriteString>
     61e:	60 e0       	ldi	r22, 0x00	; 0
     620:	83 e0       	ldi	r24, 0x03	; 3
     622:	0e 94 c4 00 	call	0x188	; 0x188 <LCD_GoTo>
     626:	88 ec       	ldi	r24, 0xC8	; 200
     628:	90 e0       	ldi	r25, 0x00	; 0
     62a:	0e 94 b1 00 	call	0x162	; 0x162 <LCD_WriteString>
     62e:	c8 01       	movw	r24, r16
     630:	0e 94 0e 08 	call	0x101c	; 0x101c <Uart_ReceiveStringAsyn>
     634:	8a e0       	ldi	r24, 0x0A	; 10
     636:	e8 2e       	mov	r14, r24
     638:	f1 2c       	mov	r15, r1
     63a:	0e 94 51 01 	call	0x2a2	; 0x2a2 <LM35_TempRead>
     63e:	90 93 16 01 	sts	0x0116, r25	; 0x800116 <temp+0x1>
     642:	80 93 15 01 	sts	0x0115, r24	; 0x800115 <temp>
     646:	0e 94 63 01 	call	0x2c6	; 0x2c6 <MPX4110_PressureRead>
     64a:	90 93 14 01 	sts	0x0114, r25	; 0x800114 <pres+0x1>
     64e:	80 93 13 01 	sts	0x0113, r24	; 0x800113 <pres>
     652:	68 e0       	ldi	r22, 0x08	; 8
     654:	80 e0       	ldi	r24, 0x00	; 0
     656:	0e 94 c4 00 	call	0x188	; 0x188 <LCD_GoTo>
     65a:	80 91 15 01 	lds	r24, 0x0115	; 0x800115 <temp>
     65e:	90 91 16 01 	lds	r25, 0x0116	; 0x800116 <temp+0x1>
     662:	b7 01       	movw	r22, r14
     664:	0e 94 24 08 	call	0x1048	; 0x1048 <__udivmodhi4>
     668:	80 e0       	ldi	r24, 0x00	; 0
     66a:	90 e0       	ldi	r25, 0x00	; 0
     66c:	0e 94 d6 00 	call	0x1ac	; 0x1ac <LCD_WriteNum>
     670:	8d ec       	ldi	r24, 0xCD	; 205
     672:	90 e0       	ldi	r25, 0x00	; 0
     674:	0e 94 b1 00 	call	0x162	; 0x162 <LCD_WriteString>
     678:	68 e0       	ldi	r22, 0x08	; 8
     67a:	81 e0       	ldi	r24, 0x01	; 1
     67c:	0e 94 c4 00 	call	0x188	; 0x188 <LCD_GoTo>
     680:	80 91 13 01 	lds	r24, 0x0113	; 0x800113 <pres>
     684:	90 91 14 01 	lds	r25, 0x0114	; 0x800114 <pres+0x1>
     688:	b7 01       	movw	r22, r14
     68a:	0e 94 24 08 	call	0x1048	; 0x1048 <__udivmodhi4>
     68e:	80 e0       	ldi	r24, 0x00	; 0
     690:	90 e0       	ldi	r25, 0x00	; 0
     692:	0e 94 d6 00 	call	0x1ac	; 0x1ac <LCD_WriteNum>
     696:	8e e2       	ldi	r24, 0x2E	; 46
     698:	0e 94 af 00 	call	0x15e	; 0x15e <LCD_WriteChar>
     69c:	80 91 13 01 	lds	r24, 0x0113	; 0x800113 <pres>
     6a0:	90 91 14 01 	lds	r25, 0x0114	; 0x800114 <pres+0x1>
     6a4:	b7 01       	movw	r22, r14
     6a6:	0e 94 24 08 	call	0x1048	; 0x1048 <__udivmodhi4>
     6aa:	bc 01       	movw	r22, r24
     6ac:	80 e0       	ldi	r24, 0x00	; 0
     6ae:	90 e0       	ldi	r25, 0x00	; 0
     6b0:	0e 94 d6 00 	call	0x1ac	; 0x1ac <LCD_WriteNum>
     6b4:	8d ec       	ldi	r24, 0xCD	; 205
     6b6:	90 e0       	ldi	r25, 0x00	; 0
     6b8:	0e 94 b1 00 	call	0x162	; 0x162 <LCD_WriteString>
     6bc:	89 81       	ldd	r24, Y+1	; 0x01
     6be:	88 23       	and	r24, r24
     6c0:	09 f4       	brne	.+2      	; 0x6c4 <main+0x11c>
     6c2:	bb cf       	rjmp	.-138    	; 0x63a <main+0x92>
     6c4:	c8 01       	movw	r24, r16
     6c6:	0e 94 95 02 	call	0x52a	; 0x52a <extract>
     6ca:	19 82       	std	Y+1, r1	; 0x01
     6cc:	b6 cf       	rjmp	.-148    	; 0x63a <main+0x92>

000006ce <ADC_Init>:
     6ce:	81 30       	cpi	r24, 0x01	; 1
     6d0:	41 f0       	breq	.+16     	; 0x6e2 <ADC_Init+0x14>
     6d2:	28 f0       	brcs	.+10     	; 0x6de <ADC_Init+0x10>
     6d4:	82 30       	cpi	r24, 0x02	; 2
     6d6:	39 f4       	brne	.+14     	; 0x6e6 <ADC_Init+0x18>
     6d8:	3e 9a       	sbi	0x07, 6	; 7
     6da:	3f 9a       	sbi	0x07, 7	; 7
     6dc:	04 c0       	rjmp	.+8      	; 0x6e6 <ADC_Init+0x18>
     6de:	3e 98       	cbi	0x07, 6	; 7
     6e0:	01 c0       	rjmp	.+2      	; 0x6e4 <ADC_Init+0x16>
     6e2:	3e 9a       	sbi	0x07, 6	; 7
     6e4:	3f 98       	cbi	0x07, 7	; 7
     6e6:	86 b1       	in	r24, 0x06	; 6
     6e8:	88 7f       	andi	r24, 0xF8	; 248
     6ea:	86 b9       	out	0x06, r24	; 6
     6ec:	86 b1       	in	r24, 0x06	; 6
     6ee:	68 2b       	or	r22, r24
     6f0:	66 b9       	out	0x06, r22	; 6
     6f2:	3d 98       	cbi	0x07, 5	; 7
     6f4:	37 9a       	sbi	0x06, 7	; 6
     6f6:	08 95       	ret

000006f8 <ADC_Read>:
     6f8:	97 b1       	in	r25, 0x07	; 7
     6fa:	90 7e       	andi	r25, 0xE0	; 224
     6fc:	97 b9       	out	0x07, r25	; 7
     6fe:	97 b1       	in	r25, 0x07	; 7
     700:	8f 71       	andi	r24, 0x1F	; 31
     702:	98 2b       	or	r25, r24
     704:	97 b9       	out	0x07, r25	; 7
     706:	36 9a       	sbi	0x06, 6	; 6
     708:	36 99       	sbic	0x06, 6	; 6
     70a:	fe cf       	rjmp	.-4      	; 0x708 <ADC_Read+0x10>
     70c:	84 b1       	in	r24, 0x04	; 4
     70e:	95 b1       	in	r25, 0x05	; 5
     710:	93 70       	andi	r25, 0x03	; 3
     712:	08 95       	ret

00000714 <__vector_16>:
     714:	1f 92       	push	r1
     716:	0f 92       	push	r0
     718:	0f b6       	in	r0, 0x3f	; 63
     71a:	0f 92       	push	r0
     71c:	11 24       	eor	r1, r1
     71e:	2f 93       	push	r18
     720:	3f 93       	push	r19
     722:	4f 93       	push	r20
     724:	5f 93       	push	r21
     726:	6f 93       	push	r22
     728:	7f 93       	push	r23
     72a:	8f 93       	push	r24
     72c:	9f 93       	push	r25
     72e:	af 93       	push	r26
     730:	bf 93       	push	r27
     732:	ef 93       	push	r30
     734:	ff 93       	push	r31
     736:	e0 91 f6 00 	lds	r30, 0x00F6	; 0x8000f6 <__data_end>
     73a:	f0 91 f7 00 	lds	r31, 0x00F7	; 0x8000f7 <__data_end+0x1>
     73e:	30 97       	sbiw	r30, 0x00	; 0
     740:	09 f0       	breq	.+2      	; 0x744 <__vector_16+0x30>
     742:	09 95       	icall
     744:	ff 91       	pop	r31
     746:	ef 91       	pop	r30
     748:	bf 91       	pop	r27
     74a:	af 91       	pop	r26
     74c:	9f 91       	pop	r25
     74e:	8f 91       	pop	r24
     750:	7f 91       	pop	r23
     752:	6f 91       	pop	r22
     754:	5f 91       	pop	r21
     756:	4f 91       	pop	r20
     758:	3f 91       	pop	r19
     75a:	2f 91       	pop	r18
     75c:	0f 90       	pop	r0
     75e:	0f be       	out	0x3f, r0	; 63
     760:	0f 90       	pop	r0
     762:	1f 90       	pop	r1
     764:	18 95       	reti

00000766 <DIO_InitPin>:
     766:	98 2f       	mov	r25, r24
     768:	97 70       	andi	r25, 0x07	; 7
     76a:	86 95       	lsr	r24
     76c:	86 95       	lsr	r24
     76e:	86 95       	lsr	r24
     770:	61 30       	cpi	r22, 0x01	; 1
     772:	e9 f1       	breq	.+122    	; 0x7ee <DIO_InitPin+0x88>
     774:	20 f0       	brcs	.+8      	; 0x77e <DIO_InitPin+0x18>
     776:	62 30       	cpi	r22, 0x02	; 2
     778:	09 f4       	brne	.+2      	; 0x77c <DIO_InitPin+0x16>
     77a:	79 c0       	rjmp	.+242    	; 0x86e <__stack+0xf>
     77c:	08 95       	ret
     77e:	81 30       	cpi	r24, 0x01	; 1
     780:	91 f0       	breq	.+36     	; 0x7a6 <DIO_InitPin+0x40>
     782:	28 f0       	brcs	.+10     	; 0x78e <DIO_InitPin+0x28>
     784:	82 30       	cpi	r24, 0x02	; 2
     786:	d9 f0       	breq	.+54     	; 0x7be <DIO_InitPin+0x58>
     788:	83 30       	cpi	r24, 0x03	; 3
     78a:	29 f1       	breq	.+74     	; 0x7d6 <DIO_InitPin+0x70>
     78c:	08 95       	ret
     78e:	4a b3       	in	r20, 0x1a	; 26
     790:	21 e0       	ldi	r18, 0x01	; 1
     792:	30 e0       	ldi	r19, 0x00	; 0
     794:	b9 01       	movw	r22, r18
     796:	02 c0       	rjmp	.+4      	; 0x79c <DIO_InitPin+0x36>
     798:	66 0f       	add	r22, r22
     79a:	77 1f       	adc	r23, r23
     79c:	9a 95       	dec	r25
     79e:	e2 f7       	brpl	.-8      	; 0x798 <DIO_InitPin+0x32>
     7a0:	cb 01       	movw	r24, r22
     7a2:	84 2b       	or	r24, r20
     7a4:	38 c0       	rjmp	.+112    	; 0x816 <DIO_InitPin+0xb0>
     7a6:	47 b3       	in	r20, 0x17	; 23
     7a8:	21 e0       	ldi	r18, 0x01	; 1
     7aa:	30 e0       	ldi	r19, 0x00	; 0
     7ac:	b9 01       	movw	r22, r18
     7ae:	02 c0       	rjmp	.+4      	; 0x7b4 <DIO_InitPin+0x4e>
     7b0:	66 0f       	add	r22, r22
     7b2:	77 1f       	adc	r23, r23
     7b4:	9a 95       	dec	r25
     7b6:	e2 f7       	brpl	.-8      	; 0x7b0 <DIO_InitPin+0x4a>
     7b8:	cb 01       	movw	r24, r22
     7ba:	84 2b       	or	r24, r20
     7bc:	3a c0       	rjmp	.+116    	; 0x832 <DIO_InitPin+0xcc>
     7be:	44 b3       	in	r20, 0x14	; 20
     7c0:	21 e0       	ldi	r18, 0x01	; 1
     7c2:	30 e0       	ldi	r19, 0x00	; 0
     7c4:	b9 01       	movw	r22, r18
     7c6:	02 c0       	rjmp	.+4      	; 0x7cc <DIO_InitPin+0x66>
     7c8:	66 0f       	add	r22, r22
     7ca:	77 1f       	adc	r23, r23
     7cc:	9a 95       	dec	r25
     7ce:	e2 f7       	brpl	.-8      	; 0x7c8 <DIO_InitPin+0x62>
     7d0:	cb 01       	movw	r24, r22
     7d2:	84 2b       	or	r24, r20
     7d4:	3c c0       	rjmp	.+120    	; 0x84e <DIO_InitPin+0xe8>
     7d6:	41 b3       	in	r20, 0x11	; 17
     7d8:	21 e0       	ldi	r18, 0x01	; 1
     7da:	30 e0       	ldi	r19, 0x00	; 0
     7dc:	b9 01       	movw	r22, r18
     7de:	02 c0       	rjmp	.+4      	; 0x7e4 <DIO_InitPin+0x7e>
     7e0:	66 0f       	add	r22, r22
     7e2:	77 1f       	adc	r23, r23
     7e4:	9a 95       	dec	r25
     7e6:	e2 f7       	brpl	.-8      	; 0x7e0 <DIO_InitPin+0x7a>
     7e8:	cb 01       	movw	r24, r22
     7ea:	84 2b       	or	r24, r20
     7ec:	3e c0       	rjmp	.+124    	; 0x86a <__stack+0xb>
     7ee:	81 30       	cpi	r24, 0x01	; 1
     7f0:	a1 f0       	breq	.+40     	; 0x81a <DIO_InitPin+0xb4>
     7f2:	28 f0       	brcs	.+10     	; 0x7fe <DIO_InitPin+0x98>
     7f4:	82 30       	cpi	r24, 0x02	; 2
     7f6:	f9 f0       	breq	.+62     	; 0x836 <DIO_InitPin+0xd0>
     7f8:	83 30       	cpi	r24, 0x03	; 3
     7fa:	59 f1       	breq	.+86     	; 0x852 <DIO_InitPin+0xec>
     7fc:	08 95       	ret
     7fe:	4a b3       	in	r20, 0x1a	; 26
     800:	21 e0       	ldi	r18, 0x01	; 1
     802:	30 e0       	ldi	r19, 0x00	; 0
     804:	b9 01       	movw	r22, r18
     806:	02 c0       	rjmp	.+4      	; 0x80c <DIO_InitPin+0xa6>
     808:	66 0f       	add	r22, r22
     80a:	77 1f       	adc	r23, r23
     80c:	9a 95       	dec	r25
     80e:	e2 f7       	brpl	.-8      	; 0x808 <DIO_InitPin+0xa2>
     810:	cb 01       	movw	r24, r22
     812:	80 95       	com	r24
     814:	84 23       	and	r24, r20
     816:	8a bb       	out	0x1a, r24	; 26
     818:	08 95       	ret
     81a:	47 b3       	in	r20, 0x17	; 23
     81c:	21 e0       	ldi	r18, 0x01	; 1
     81e:	30 e0       	ldi	r19, 0x00	; 0
     820:	b9 01       	movw	r22, r18
     822:	02 c0       	rjmp	.+4      	; 0x828 <DIO_InitPin+0xc2>
     824:	66 0f       	add	r22, r22
     826:	77 1f       	adc	r23, r23
     828:	9a 95       	dec	r25
     82a:	e2 f7       	brpl	.-8      	; 0x824 <DIO_InitPin+0xbe>
     82c:	cb 01       	movw	r24, r22
     82e:	80 95       	com	r24
     830:	84 23       	and	r24, r20
     832:	87 bb       	out	0x17, r24	; 23
     834:	08 95       	ret
     836:	44 b3       	in	r20, 0x14	; 20
     838:	21 e0       	ldi	r18, 0x01	; 1
     83a:	30 e0       	ldi	r19, 0x00	; 0
     83c:	b9 01       	movw	r22, r18
     83e:	02 c0       	rjmp	.+4      	; 0x844 <DIO_InitPin+0xde>
     840:	66 0f       	add	r22, r22
     842:	77 1f       	adc	r23, r23
     844:	9a 95       	dec	r25
     846:	e2 f7       	brpl	.-8      	; 0x840 <DIO_InitPin+0xda>
     848:	cb 01       	movw	r24, r22
     84a:	80 95       	com	r24
     84c:	84 23       	and	r24, r20
     84e:	84 bb       	out	0x14, r24	; 20
     850:	08 95       	ret
     852:	41 b3       	in	r20, 0x11	; 17
     854:	21 e0       	ldi	r18, 0x01	; 1
     856:	30 e0       	ldi	r19, 0x00	; 0
     858:	b9 01       	movw	r22, r18
     85a:	02 c0       	rjmp	.+4      	; 0x860 <__stack+0x1>
     85c:	66 0f       	add	r22, r22
     85e:	77 1f       	adc	r23, r23
     860:	9a 95       	dec	r25
     862:	e2 f7       	brpl	.-8      	; 0x85c <DIO_InitPin+0xf6>
     864:	cb 01       	movw	r24, r22
     866:	80 95       	com	r24
     868:	84 23       	and	r24, r20
     86a:	81 bb       	out	0x11, r24	; 17
     86c:	08 95       	ret
     86e:	81 30       	cpi	r24, 0x01	; 1
     870:	c1 f0       	breq	.+48     	; 0x8a2 <__stack+0x43>
     872:	28 f0       	brcs	.+10     	; 0x87e <__stack+0x1f>
     874:	82 30       	cpi	r24, 0x02	; 2
     876:	39 f1       	breq	.+78     	; 0x8c6 <__stack+0x67>
     878:	83 30       	cpi	r24, 0x03	; 3
     87a:	b9 f1       	breq	.+110    	; 0x8ea <__stack+0x8b>
     87c:	08 95       	ret
     87e:	4a b3       	in	r20, 0x1a	; 26
     880:	21 e0       	ldi	r18, 0x01	; 1
     882:	30 e0       	ldi	r19, 0x00	; 0
     884:	b9 01       	movw	r22, r18
     886:	02 c0       	rjmp	.+4      	; 0x88c <__stack+0x2d>
     888:	66 0f       	add	r22, r22
     88a:	77 1f       	adc	r23, r23
     88c:	9a 95       	dec	r25
     88e:	e2 f7       	brpl	.-8      	; 0x888 <__stack+0x29>
     890:	cb 01       	movw	r24, r22
     892:	96 2f       	mov	r25, r22
     894:	90 95       	com	r25
     896:	94 23       	and	r25, r20
     898:	9a bb       	out	0x1a, r25	; 26
     89a:	9b b3       	in	r25, 0x1b	; 27
     89c:	89 2b       	or	r24, r25
     89e:	8b bb       	out	0x1b, r24	; 27
     8a0:	08 95       	ret
     8a2:	47 b3       	in	r20, 0x17	; 23
     8a4:	21 e0       	ldi	r18, 0x01	; 1
     8a6:	30 e0       	ldi	r19, 0x00	; 0
     8a8:	b9 01       	movw	r22, r18
     8aa:	02 c0       	rjmp	.+4      	; 0x8b0 <__stack+0x51>
     8ac:	66 0f       	add	r22, r22
     8ae:	77 1f       	adc	r23, r23
     8b0:	9a 95       	dec	r25
     8b2:	e2 f7       	brpl	.-8      	; 0x8ac <__stack+0x4d>
     8b4:	cb 01       	movw	r24, r22
     8b6:	96 2f       	mov	r25, r22
     8b8:	90 95       	com	r25
     8ba:	94 23       	and	r25, r20
     8bc:	97 bb       	out	0x17, r25	; 23
     8be:	98 b3       	in	r25, 0x18	; 24
     8c0:	89 2b       	or	r24, r25
     8c2:	88 bb       	out	0x18, r24	; 24
     8c4:	08 95       	ret
     8c6:	44 b3       	in	r20, 0x14	; 20
     8c8:	21 e0       	ldi	r18, 0x01	; 1
     8ca:	30 e0       	ldi	r19, 0x00	; 0
     8cc:	b9 01       	movw	r22, r18
     8ce:	02 c0       	rjmp	.+4      	; 0x8d4 <__stack+0x75>
     8d0:	66 0f       	add	r22, r22
     8d2:	77 1f       	adc	r23, r23
     8d4:	9a 95       	dec	r25
     8d6:	e2 f7       	brpl	.-8      	; 0x8d0 <__stack+0x71>
     8d8:	cb 01       	movw	r24, r22
     8da:	96 2f       	mov	r25, r22
     8dc:	90 95       	com	r25
     8de:	94 23       	and	r25, r20
     8e0:	94 bb       	out	0x14, r25	; 20
     8e2:	95 b3       	in	r25, 0x15	; 21
     8e4:	89 2b       	or	r24, r25
     8e6:	85 bb       	out	0x15, r24	; 21
     8e8:	08 95       	ret
     8ea:	41 b3       	in	r20, 0x11	; 17
     8ec:	21 e0       	ldi	r18, 0x01	; 1
     8ee:	30 e0       	ldi	r19, 0x00	; 0
     8f0:	b9 01       	movw	r22, r18
     8f2:	02 c0       	rjmp	.+4      	; 0x8f8 <__stack+0x99>
     8f4:	66 0f       	add	r22, r22
     8f6:	77 1f       	adc	r23, r23
     8f8:	9a 95       	dec	r25
     8fa:	e2 f7       	brpl	.-8      	; 0x8f4 <__stack+0x95>
     8fc:	cb 01       	movw	r24, r22
     8fe:	96 2f       	mov	r25, r22
     900:	90 95       	com	r25
     902:	94 23       	and	r25, r20
     904:	91 bb       	out	0x11, r25	; 17
     906:	92 b3       	in	r25, 0x12	; 18
     908:	89 2b       	or	r24, r25
     90a:	82 bb       	out	0x12, r24	; 18
     90c:	08 95       	ret

0000090e <DIO_WritePin>:
     90e:	98 2f       	mov	r25, r24
     910:	97 70       	andi	r25, 0x07	; 7
     912:	86 95       	lsr	r24
     914:	86 95       	lsr	r24
     916:	86 95       	lsr	r24
     918:	61 30       	cpi	r22, 0x01	; 1
     91a:	c1 f5       	brne	.+112    	; 0x98c <DIO_WritePin+0x7e>
     91c:	81 30       	cpi	r24, 0x01	; 1
     91e:	91 f0       	breq	.+36     	; 0x944 <DIO_WritePin+0x36>
     920:	28 f0       	brcs	.+10     	; 0x92c <DIO_WritePin+0x1e>
     922:	82 30       	cpi	r24, 0x02	; 2
     924:	d9 f0       	breq	.+54     	; 0x95c <DIO_WritePin+0x4e>
     926:	83 30       	cpi	r24, 0x03	; 3
     928:	29 f1       	breq	.+74     	; 0x974 <DIO_WritePin+0x66>
     92a:	08 95       	ret
     92c:	4b b3       	in	r20, 0x1b	; 27
     92e:	21 e0       	ldi	r18, 0x01	; 1
     930:	30 e0       	ldi	r19, 0x00	; 0
     932:	b9 01       	movw	r22, r18
     934:	02 c0       	rjmp	.+4      	; 0x93a <DIO_WritePin+0x2c>
     936:	66 0f       	add	r22, r22
     938:	77 1f       	adc	r23, r23
     93a:	9a 95       	dec	r25
     93c:	e2 f7       	brpl	.-8      	; 0x936 <DIO_WritePin+0x28>
     93e:	cb 01       	movw	r24, r22
     940:	84 2b       	or	r24, r20
     942:	3a c0       	rjmp	.+116    	; 0x9b8 <DIO_WritePin+0xaa>
     944:	48 b3       	in	r20, 0x18	; 24
     946:	21 e0       	ldi	r18, 0x01	; 1
     948:	30 e0       	ldi	r19, 0x00	; 0
     94a:	b9 01       	movw	r22, r18
     94c:	02 c0       	rjmp	.+4      	; 0x952 <DIO_WritePin+0x44>
     94e:	66 0f       	add	r22, r22
     950:	77 1f       	adc	r23, r23
     952:	9a 95       	dec	r25
     954:	e2 f7       	brpl	.-8      	; 0x94e <DIO_WritePin+0x40>
     956:	cb 01       	movw	r24, r22
     958:	84 2b       	or	r24, r20
     95a:	3c c0       	rjmp	.+120    	; 0x9d4 <DIO_WritePin+0xc6>
     95c:	45 b3       	in	r20, 0x15	; 21
     95e:	21 e0       	ldi	r18, 0x01	; 1
     960:	30 e0       	ldi	r19, 0x00	; 0
     962:	b9 01       	movw	r22, r18
     964:	02 c0       	rjmp	.+4      	; 0x96a <DIO_WritePin+0x5c>
     966:	66 0f       	add	r22, r22
     968:	77 1f       	adc	r23, r23
     96a:	9a 95       	dec	r25
     96c:	e2 f7       	brpl	.-8      	; 0x966 <DIO_WritePin+0x58>
     96e:	cb 01       	movw	r24, r22
     970:	84 2b       	or	r24, r20
     972:	3e c0       	rjmp	.+124    	; 0x9f0 <DIO_WritePin+0xe2>
     974:	42 b3       	in	r20, 0x12	; 18
     976:	21 e0       	ldi	r18, 0x01	; 1
     978:	30 e0       	ldi	r19, 0x00	; 0
     97a:	b9 01       	movw	r22, r18
     97c:	02 c0       	rjmp	.+4      	; 0x982 <DIO_WritePin+0x74>
     97e:	66 0f       	add	r22, r22
     980:	77 1f       	adc	r23, r23
     982:	9a 95       	dec	r25
     984:	e2 f7       	brpl	.-8      	; 0x97e <DIO_WritePin+0x70>
     986:	cb 01       	movw	r24, r22
     988:	84 2b       	or	r24, r20
     98a:	40 c0       	rjmp	.+128    	; 0xa0c <DIO_WritePin+0xfe>
     98c:	61 11       	cpse	r22, r1
     98e:	3f c0       	rjmp	.+126    	; 0xa0e <DIO_WritePin+0x100>
     990:	81 30       	cpi	r24, 0x01	; 1
     992:	a1 f0       	breq	.+40     	; 0x9bc <DIO_WritePin+0xae>
     994:	28 f0       	brcs	.+10     	; 0x9a0 <DIO_WritePin+0x92>
     996:	82 30       	cpi	r24, 0x02	; 2
     998:	f9 f0       	breq	.+62     	; 0x9d8 <DIO_WritePin+0xca>
     99a:	83 30       	cpi	r24, 0x03	; 3
     99c:	59 f1       	breq	.+86     	; 0x9f4 <DIO_WritePin+0xe6>
     99e:	08 95       	ret
     9a0:	4b b3       	in	r20, 0x1b	; 27
     9a2:	21 e0       	ldi	r18, 0x01	; 1
     9a4:	30 e0       	ldi	r19, 0x00	; 0
     9a6:	b9 01       	movw	r22, r18
     9a8:	02 c0       	rjmp	.+4      	; 0x9ae <DIO_WritePin+0xa0>
     9aa:	66 0f       	add	r22, r22
     9ac:	77 1f       	adc	r23, r23
     9ae:	9a 95       	dec	r25
     9b0:	e2 f7       	brpl	.-8      	; 0x9aa <DIO_WritePin+0x9c>
     9b2:	cb 01       	movw	r24, r22
     9b4:	80 95       	com	r24
     9b6:	84 23       	and	r24, r20
     9b8:	8b bb       	out	0x1b, r24	; 27
     9ba:	08 95       	ret
     9bc:	48 b3       	in	r20, 0x18	; 24
     9be:	21 e0       	ldi	r18, 0x01	; 1
     9c0:	30 e0       	ldi	r19, 0x00	; 0
     9c2:	b9 01       	movw	r22, r18
     9c4:	02 c0       	rjmp	.+4      	; 0x9ca <DIO_WritePin+0xbc>
     9c6:	66 0f       	add	r22, r22
     9c8:	77 1f       	adc	r23, r23
     9ca:	9a 95       	dec	r25
     9cc:	e2 f7       	brpl	.-8      	; 0x9c6 <DIO_WritePin+0xb8>
     9ce:	cb 01       	movw	r24, r22
     9d0:	80 95       	com	r24
     9d2:	84 23       	and	r24, r20
     9d4:	88 bb       	out	0x18, r24	; 24
     9d6:	08 95       	ret
     9d8:	45 b3       	in	r20, 0x15	; 21
     9da:	21 e0       	ldi	r18, 0x01	; 1
     9dc:	30 e0       	ldi	r19, 0x00	; 0
     9de:	b9 01       	movw	r22, r18
     9e0:	02 c0       	rjmp	.+4      	; 0x9e6 <DIO_WritePin+0xd8>
     9e2:	66 0f       	add	r22, r22
     9e4:	77 1f       	adc	r23, r23
     9e6:	9a 95       	dec	r25
     9e8:	e2 f7       	brpl	.-8      	; 0x9e2 <DIO_WritePin+0xd4>
     9ea:	cb 01       	movw	r24, r22
     9ec:	80 95       	com	r24
     9ee:	84 23       	and	r24, r20
     9f0:	85 bb       	out	0x15, r24	; 21
     9f2:	08 95       	ret
     9f4:	42 b3       	in	r20, 0x12	; 18
     9f6:	21 e0       	ldi	r18, 0x01	; 1
     9f8:	30 e0       	ldi	r19, 0x00	; 0
     9fa:	b9 01       	movw	r22, r18
     9fc:	02 c0       	rjmp	.+4      	; 0xa02 <DIO_WritePin+0xf4>
     9fe:	66 0f       	add	r22, r22
     a00:	77 1f       	adc	r23, r23
     a02:	9a 95       	dec	r25
     a04:	e2 f7       	brpl	.-8      	; 0x9fe <DIO_WritePin+0xf0>
     a06:	cb 01       	movw	r24, r22
     a08:	80 95       	com	r24
     a0a:	84 23       	and	r24, r20
     a0c:	82 bb       	out	0x12, r24	; 18
     a0e:	08 95       	ret

00000a10 <DIO_WritePort>:
     a10:	81 30       	cpi	r24, 0x01	; 1
     a12:	41 f0       	breq	.+16     	; 0xa24 <DIO_WritePort+0x14>
     a14:	28 f0       	brcs	.+10     	; 0xa20 <DIO_WritePort+0x10>
     a16:	82 30       	cpi	r24, 0x02	; 2
     a18:	39 f0       	breq	.+14     	; 0xa28 <DIO_WritePort+0x18>
     a1a:	83 30       	cpi	r24, 0x03	; 3
     a1c:	39 f0       	breq	.+14     	; 0xa2c <DIO_WritePort+0x1c>
     a1e:	08 95       	ret
     a20:	6b bb       	out	0x1b, r22	; 27
     a22:	08 95       	ret
     a24:	68 bb       	out	0x18, r22	; 24
     a26:	08 95       	ret
     a28:	65 bb       	out	0x15, r22	; 21
     a2a:	08 95       	ret
     a2c:	62 bb       	out	0x12, r22	; 18
     a2e:	08 95       	ret

00000a30 <DIO_Init>:
     a30:	0f 93       	push	r16
     a32:	1f 93       	push	r17
     a34:	cf 93       	push	r28
     a36:	02 ed       	ldi	r16, 0xD2	; 210
     a38:	10 e0       	ldi	r17, 0x00	; 0
     a3a:	c0 e0       	ldi	r28, 0x00	; 0
     a3c:	f8 01       	movw	r30, r16
     a3e:	61 91       	ld	r22, Z+
     a40:	8f 01       	movw	r16, r30
     a42:	8c 2f       	mov	r24, r28
     a44:	0e 94 b3 03 	call	0x766	; 0x766 <DIO_InitPin>
     a48:	cf 5f       	subi	r28, 0xFF	; 255
     a4a:	c0 32       	cpi	r28, 0x20	; 32
     a4c:	b9 f7       	brne	.-18     	; 0xa3c <DIO_Init+0xc>
     a4e:	cf 91       	pop	r28
     a50:	1f 91       	pop	r17
     a52:	0f 91       	pop	r16
     a54:	08 95       	ret

00000a56 <__vector_1>:
     a56:	1f 92       	push	r1
     a58:	0f 92       	push	r0
     a5a:	0f b6       	in	r0, 0x3f	; 63
     a5c:	0f 92       	push	r0
     a5e:	11 24       	eor	r1, r1
     a60:	2f 93       	push	r18
     a62:	3f 93       	push	r19
     a64:	4f 93       	push	r20
     a66:	5f 93       	push	r21
     a68:	6f 93       	push	r22
     a6a:	7f 93       	push	r23
     a6c:	8f 93       	push	r24
     a6e:	9f 93       	push	r25
     a70:	af 93       	push	r26
     a72:	bf 93       	push	r27
     a74:	ef 93       	push	r30
     a76:	ff 93       	push	r31
     a78:	e0 91 fc 00 	lds	r30, 0x00FC	; 0x8000fc <INT0_Fptr>
     a7c:	f0 91 fd 00 	lds	r31, 0x00FD	; 0x8000fd <INT0_Fptr+0x1>
     a80:	30 97       	sbiw	r30, 0x00	; 0
     a82:	09 f0       	breq	.+2      	; 0xa86 <__vector_1+0x30>
     a84:	09 95       	icall
     a86:	ff 91       	pop	r31
     a88:	ef 91       	pop	r30
     a8a:	bf 91       	pop	r27
     a8c:	af 91       	pop	r26
     a8e:	9f 91       	pop	r25
     a90:	8f 91       	pop	r24
     a92:	7f 91       	pop	r23
     a94:	6f 91       	pop	r22
     a96:	5f 91       	pop	r21
     a98:	4f 91       	pop	r20
     a9a:	3f 91       	pop	r19
     a9c:	2f 91       	pop	r18
     a9e:	0f 90       	pop	r0
     aa0:	0f be       	out	0x3f, r0	; 63
     aa2:	0f 90       	pop	r0
     aa4:	1f 90       	pop	r1
     aa6:	18 95       	reti

00000aa8 <__vector_2>:
     aa8:	1f 92       	push	r1
     aaa:	0f 92       	push	r0
     aac:	0f b6       	in	r0, 0x3f	; 63
     aae:	0f 92       	push	r0
     ab0:	11 24       	eor	r1, r1
     ab2:	2f 93       	push	r18
     ab4:	3f 93       	push	r19
     ab6:	4f 93       	push	r20
     ab8:	5f 93       	push	r21
     aba:	6f 93       	push	r22
     abc:	7f 93       	push	r23
     abe:	8f 93       	push	r24
     ac0:	9f 93       	push	r25
     ac2:	af 93       	push	r26
     ac4:	bf 93       	push	r27
     ac6:	ef 93       	push	r30
     ac8:	ff 93       	push	r31
     aca:	e0 91 fa 00 	lds	r30, 0x00FA	; 0x8000fa <INT1_Fptr>
     ace:	f0 91 fb 00 	lds	r31, 0x00FB	; 0x8000fb <INT1_Fptr+0x1>
     ad2:	30 97       	sbiw	r30, 0x00	; 0
     ad4:	09 f0       	breq	.+2      	; 0xad8 <__vector_2+0x30>
     ad6:	09 95       	icall
     ad8:	ff 91       	pop	r31
     ada:	ef 91       	pop	r30
     adc:	bf 91       	pop	r27
     ade:	af 91       	pop	r26
     ae0:	9f 91       	pop	r25
     ae2:	8f 91       	pop	r24
     ae4:	7f 91       	pop	r23
     ae6:	6f 91       	pop	r22
     ae8:	5f 91       	pop	r21
     aea:	4f 91       	pop	r20
     aec:	3f 91       	pop	r19
     aee:	2f 91       	pop	r18
     af0:	0f 90       	pop	r0
     af2:	0f be       	out	0x3f, r0	; 63
     af4:	0f 90       	pop	r0
     af6:	1f 90       	pop	r1
     af8:	18 95       	reti

00000afa <__vector_3>:
     afa:	1f 92       	push	r1
     afc:	0f 92       	push	r0
     afe:	0f b6       	in	r0, 0x3f	; 63
     b00:	0f 92       	push	r0
     b02:	11 24       	eor	r1, r1
     b04:	2f 93       	push	r18
     b06:	3f 93       	push	r19
     b08:	4f 93       	push	r20
     b0a:	5f 93       	push	r21
     b0c:	6f 93       	push	r22
     b0e:	7f 93       	push	r23
     b10:	8f 93       	push	r24
     b12:	9f 93       	push	r25
     b14:	af 93       	push	r26
     b16:	bf 93       	push	r27
     b18:	ef 93       	push	r30
     b1a:	ff 93       	push	r31
     b1c:	e0 91 f8 00 	lds	r30, 0x00F8	; 0x8000f8 <INT2_Fptr>
     b20:	f0 91 f9 00 	lds	r31, 0x00F9	; 0x8000f9 <INT2_Fptr+0x1>
     b24:	30 97       	sbiw	r30, 0x00	; 0
     b26:	09 f0       	breq	.+2      	; 0xb2a <__vector_3+0x30>
     b28:	09 95       	icall
     b2a:	ff 91       	pop	r31
     b2c:	ef 91       	pop	r30
     b2e:	bf 91       	pop	r27
     b30:	af 91       	pop	r26
     b32:	9f 91       	pop	r25
     b34:	8f 91       	pop	r24
     b36:	7f 91       	pop	r23
     b38:	6f 91       	pop	r22
     b3a:	5f 91       	pop	r21
     b3c:	4f 91       	pop	r20
     b3e:	3f 91       	pop	r19
     b40:	2f 91       	pop	r18
     b42:	0f 90       	pop	r0
     b44:	0f be       	out	0x3f, r0	; 63
     b46:	0f 90       	pop	r0
     b48:	1f 90       	pop	r1
     b4a:	18 95       	reti

00000b4c <Timer1_Init>:
     b4c:	82 30       	cpi	r24, 0x02	; 2
     b4e:	d9 f0       	breq	.+54     	; 0xb86 <Timer1_Init+0x3a>
     b50:	50 f4       	brcc	.+20     	; 0xb66 <Timer1_Init+0x1a>
     b52:	88 23       	and	r24, r24
     b54:	79 f0       	breq	.+30     	; 0xb74 <Timer1_Init+0x28>
     b56:	81 30       	cpi	r24, 0x01	; 1
     b58:	71 f5       	brne	.+92     	; 0xbb6 <Timer1_Init+0x6a>
     b5a:	8f b5       	in	r24, 0x2f	; 47
     b5c:	8e 7f       	andi	r24, 0xFE	; 254
     b5e:	8f bd       	out	0x2f, r24	; 47
     b60:	8f b5       	in	r24, 0x2f	; 47
     b62:	8d 7f       	andi	r24, 0xFD	; 253
     b64:	21 c0       	rjmp	.+66     	; 0xba8 <Timer1_Init+0x5c>
     b66:	83 30       	cpi	r24, 0x03	; 3
     b68:	d1 f0       	breq	.+52     	; 0xb9e <Timer1_Init+0x52>
     b6a:	84 30       	cpi	r24, 0x04	; 4
     b6c:	21 f5       	brne	.+72     	; 0xbb6 <Timer1_Init+0x6a>
     b6e:	8f b5       	in	r24, 0x2f	; 47
     b70:	81 60       	ori	r24, 0x01	; 1
     b72:	17 c0       	rjmp	.+46     	; 0xba2 <Timer1_Init+0x56>
     b74:	8f b5       	in	r24, 0x2f	; 47
     b76:	8e 7f       	andi	r24, 0xFE	; 254
     b78:	8f bd       	out	0x2f, r24	; 47
     b7a:	8f b5       	in	r24, 0x2f	; 47
     b7c:	8d 7f       	andi	r24, 0xFD	; 253
     b7e:	8f bd       	out	0x2f, r24	; 47
     b80:	8e b5       	in	r24, 0x2e	; 46
     b82:	87 7f       	andi	r24, 0xF7	; 247
     b84:	08 c0       	rjmp	.+16     	; 0xb96 <Timer1_Init+0x4a>
     b86:	8f b5       	in	r24, 0x2f	; 47
     b88:	8e 7f       	andi	r24, 0xFE	; 254
     b8a:	8f bd       	out	0x2f, r24	; 47
     b8c:	8f b5       	in	r24, 0x2f	; 47
     b8e:	8d 7f       	andi	r24, 0xFD	; 253
     b90:	8f bd       	out	0x2f, r24	; 47
     b92:	8e b5       	in	r24, 0x2e	; 46
     b94:	88 60       	ori	r24, 0x08	; 8
     b96:	8e bd       	out	0x2e, r24	; 46
     b98:	8e b5       	in	r24, 0x2e	; 46
     b9a:	8f 7e       	andi	r24, 0xEF	; 239
     b9c:	0b c0       	rjmp	.+22     	; 0xbb4 <Timer1_Init+0x68>
     b9e:	8f b5       	in	r24, 0x2f	; 47
     ba0:	8e 7f       	andi	r24, 0xFE	; 254
     ba2:	8f bd       	out	0x2f, r24	; 47
     ba4:	8f b5       	in	r24, 0x2f	; 47
     ba6:	82 60       	ori	r24, 0x02	; 2
     ba8:	8f bd       	out	0x2f, r24	; 47
     baa:	8e b5       	in	r24, 0x2e	; 46
     bac:	88 60       	ori	r24, 0x08	; 8
     bae:	8e bd       	out	0x2e, r24	; 46
     bb0:	8e b5       	in	r24, 0x2e	; 46
     bb2:	80 61       	ori	r24, 0x10	; 16
     bb4:	8e bd       	out	0x2e, r24	; 46
     bb6:	8e b5       	in	r24, 0x2e	; 46
     bb8:	88 7f       	andi	r24, 0xF8	; 248
     bba:	8e bd       	out	0x2e, r24	; 46
     bbc:	8e b5       	in	r24, 0x2e	; 46
     bbe:	68 2b       	or	r22, r24
     bc0:	6e bd       	out	0x2e, r22	; 46
     bc2:	08 95       	ret

00000bc4 <Timer1_OCRB_Mode>:
     bc4:	81 30       	cpi	r24, 0x01	; 1
     bc6:	49 f0       	breq	.+18     	; 0xbda <Timer1_OCRB_Mode+0x16>
     bc8:	28 f0       	brcs	.+10     	; 0xbd4 <Timer1_OCRB_Mode+0x10>
     bca:	82 30       	cpi	r24, 0x02	; 2
     bcc:	61 f0       	breq	.+24     	; 0xbe6 <Timer1_OCRB_Mode+0x22>
     bce:	83 30       	cpi	r24, 0x03	; 3
     bd0:	69 f0       	breq	.+26     	; 0xbec <Timer1_OCRB_Mode+0x28>
     bd2:	08 95       	ret
     bd4:	8f b5       	in	r24, 0x2f	; 47
     bd6:	8f 7e       	andi	r24, 0xEF	; 239
     bd8:	02 c0       	rjmp	.+4      	; 0xbde <Timer1_OCRB_Mode+0x1a>
     bda:	8f b5       	in	r24, 0x2f	; 47
     bdc:	80 61       	ori	r24, 0x10	; 16
     bde:	8f bd       	out	0x2f, r24	; 47
     be0:	8f b5       	in	r24, 0x2f	; 47
     be2:	8f 7d       	andi	r24, 0xDF	; 223
     be4:	08 c0       	rjmp	.+16     	; 0xbf6 <Timer1_OCRB_Mode+0x32>
     be6:	8f b5       	in	r24, 0x2f	; 47
     be8:	8f 7e       	andi	r24, 0xEF	; 239
     bea:	02 c0       	rjmp	.+4      	; 0xbf0 <Timer1_OCRB_Mode+0x2c>
     bec:	8f b5       	in	r24, 0x2f	; 47
     bee:	80 61       	ori	r24, 0x10	; 16
     bf0:	8f bd       	out	0x2f, r24	; 47
     bf2:	8f b5       	in	r24, 0x2f	; 47
     bf4:	80 62       	ori	r24, 0x20	; 32
     bf6:	8f bd       	out	0x2f, r24	; 47
     bf8:	08 95       	ret

00000bfa <Timer1_OCRB_Set>:
     bfa:	99 bd       	out	0x29, r25	; 41
     bfc:	88 bd       	out	0x28, r24	; 40
     bfe:	08 95       	ret

00000c00 <Timer1_ICR_Set>:
     c00:	97 bd       	out	0x27, r25	; 39
     c02:	86 bd       	out	0x26, r24	; 38
     c04:	08 95       	ret

00000c06 <__vector_11>:
     c06:	1f 92       	push	r1
     c08:	0f 92       	push	r0
     c0a:	0f b6       	in	r0, 0x3f	; 63
     c0c:	0f 92       	push	r0
     c0e:	11 24       	eor	r1, r1
     c10:	2f 93       	push	r18
     c12:	3f 93       	push	r19
     c14:	4f 93       	push	r20
     c16:	5f 93       	push	r21
     c18:	6f 93       	push	r22
     c1a:	7f 93       	push	r23
     c1c:	8f 93       	push	r24
     c1e:	9f 93       	push	r25
     c20:	af 93       	push	r26
     c22:	bf 93       	push	r27
     c24:	ef 93       	push	r30
     c26:	ff 93       	push	r31
     c28:	e0 91 08 01 	lds	r30, 0x0108	; 0x800108 <TIMER0_OVF_IntFptr>
     c2c:	f0 91 09 01 	lds	r31, 0x0109	; 0x800109 <TIMER0_OVF_IntFptr+0x1>
     c30:	30 97       	sbiw	r30, 0x00	; 0
     c32:	09 f0       	breq	.+2      	; 0xc36 <__vector_11+0x30>
     c34:	09 95       	icall
     c36:	ff 91       	pop	r31
     c38:	ef 91       	pop	r30
     c3a:	bf 91       	pop	r27
     c3c:	af 91       	pop	r26
     c3e:	9f 91       	pop	r25
     c40:	8f 91       	pop	r24
     c42:	7f 91       	pop	r23
     c44:	6f 91       	pop	r22
     c46:	5f 91       	pop	r21
     c48:	4f 91       	pop	r20
     c4a:	3f 91       	pop	r19
     c4c:	2f 91       	pop	r18
     c4e:	0f 90       	pop	r0
     c50:	0f be       	out	0x3f, r0	; 63
     c52:	0f 90       	pop	r0
     c54:	1f 90       	pop	r1
     c56:	18 95       	reti

00000c58 <__vector_10>:
     c58:	1f 92       	push	r1
     c5a:	0f 92       	push	r0
     c5c:	0f b6       	in	r0, 0x3f	; 63
     c5e:	0f 92       	push	r0
     c60:	11 24       	eor	r1, r1
     c62:	2f 93       	push	r18
     c64:	3f 93       	push	r19
     c66:	4f 93       	push	r20
     c68:	5f 93       	push	r21
     c6a:	6f 93       	push	r22
     c6c:	7f 93       	push	r23
     c6e:	8f 93       	push	r24
     c70:	9f 93       	push	r25
     c72:	af 93       	push	r26
     c74:	bf 93       	push	r27
     c76:	ef 93       	push	r30
     c78:	ff 93       	push	r31
     c7a:	e0 91 06 01 	lds	r30, 0x0106	; 0x800106 <TIMER0_COM_IntFptr>
     c7e:	f0 91 07 01 	lds	r31, 0x0107	; 0x800107 <TIMER0_COM_IntFptr+0x1>
     c82:	30 97       	sbiw	r30, 0x00	; 0
     c84:	09 f0       	breq	.+2      	; 0xc88 <__vector_10+0x30>
     c86:	09 95       	icall
     c88:	ff 91       	pop	r31
     c8a:	ef 91       	pop	r30
     c8c:	bf 91       	pop	r27
     c8e:	af 91       	pop	r26
     c90:	9f 91       	pop	r25
     c92:	8f 91       	pop	r24
     c94:	7f 91       	pop	r23
     c96:	6f 91       	pop	r22
     c98:	5f 91       	pop	r21
     c9a:	4f 91       	pop	r20
     c9c:	3f 91       	pop	r19
     c9e:	2f 91       	pop	r18
     ca0:	0f 90       	pop	r0
     ca2:	0f be       	out	0x3f, r0	; 63
     ca4:	0f 90       	pop	r0
     ca6:	1f 90       	pop	r1
     ca8:	18 95       	reti

00000caa <__vector_9>:
     caa:	1f 92       	push	r1
     cac:	0f 92       	push	r0
     cae:	0f b6       	in	r0, 0x3f	; 63
     cb0:	0f 92       	push	r0
     cb2:	11 24       	eor	r1, r1
     cb4:	2f 93       	push	r18
     cb6:	3f 93       	push	r19
     cb8:	4f 93       	push	r20
     cba:	5f 93       	push	r21
     cbc:	6f 93       	push	r22
     cbe:	7f 93       	push	r23
     cc0:	8f 93       	push	r24
     cc2:	9f 93       	push	r25
     cc4:	af 93       	push	r26
     cc6:	bf 93       	push	r27
     cc8:	ef 93       	push	r30
     cca:	ff 93       	push	r31
     ccc:	e0 91 04 01 	lds	r30, 0x0104	; 0x800104 <Timer1_OVF_IntFptr>
     cd0:	f0 91 05 01 	lds	r31, 0x0105	; 0x800105 <Timer1_OVF_IntFptr+0x1>
     cd4:	30 97       	sbiw	r30, 0x00	; 0
     cd6:	09 f0       	breq	.+2      	; 0xcda <__vector_9+0x30>
     cd8:	09 95       	icall
     cda:	ff 91       	pop	r31
     cdc:	ef 91       	pop	r30
     cde:	bf 91       	pop	r27
     ce0:	af 91       	pop	r26
     ce2:	9f 91       	pop	r25
     ce4:	8f 91       	pop	r24
     ce6:	7f 91       	pop	r23
     ce8:	6f 91       	pop	r22
     cea:	5f 91       	pop	r21
     cec:	4f 91       	pop	r20
     cee:	3f 91       	pop	r19
     cf0:	2f 91       	pop	r18
     cf2:	0f 90       	pop	r0
     cf4:	0f be       	out	0x3f, r0	; 63
     cf6:	0f 90       	pop	r0
     cf8:	1f 90       	pop	r1
     cfa:	18 95       	reti

00000cfc <__vector_7>:
     cfc:	1f 92       	push	r1
     cfe:	0f 92       	push	r0
     d00:	0f b6       	in	r0, 0x3f	; 63
     d02:	0f 92       	push	r0
     d04:	11 24       	eor	r1, r1
     d06:	2f 93       	push	r18
     d08:	3f 93       	push	r19
     d0a:	4f 93       	push	r20
     d0c:	5f 93       	push	r21
     d0e:	6f 93       	push	r22
     d10:	7f 93       	push	r23
     d12:	8f 93       	push	r24
     d14:	9f 93       	push	r25
     d16:	af 93       	push	r26
     d18:	bf 93       	push	r27
     d1a:	ef 93       	push	r30
     d1c:	ff 93       	push	r31
     d1e:	e0 91 02 01 	lds	r30, 0x0102	; 0x800102 <Timer1_OCA_IntFptr>
     d22:	f0 91 03 01 	lds	r31, 0x0103	; 0x800103 <Timer1_OCA_IntFptr+0x1>
     d26:	30 97       	sbiw	r30, 0x00	; 0
     d28:	09 f0       	breq	.+2      	; 0xd2c <__vector_7+0x30>
     d2a:	09 95       	icall
     d2c:	ff 91       	pop	r31
     d2e:	ef 91       	pop	r30
     d30:	bf 91       	pop	r27
     d32:	af 91       	pop	r26
     d34:	9f 91       	pop	r25
     d36:	8f 91       	pop	r24
     d38:	7f 91       	pop	r23
     d3a:	6f 91       	pop	r22
     d3c:	5f 91       	pop	r21
     d3e:	4f 91       	pop	r20
     d40:	3f 91       	pop	r19
     d42:	2f 91       	pop	r18
     d44:	0f 90       	pop	r0
     d46:	0f be       	out	0x3f, r0	; 63
     d48:	0f 90       	pop	r0
     d4a:	1f 90       	pop	r1
     d4c:	18 95       	reti

00000d4e <__vector_8>:
     d4e:	1f 92       	push	r1
     d50:	0f 92       	push	r0
     d52:	0f b6       	in	r0, 0x3f	; 63
     d54:	0f 92       	push	r0
     d56:	11 24       	eor	r1, r1
     d58:	2f 93       	push	r18
     d5a:	3f 93       	push	r19
     d5c:	4f 93       	push	r20
     d5e:	5f 93       	push	r21
     d60:	6f 93       	push	r22
     d62:	7f 93       	push	r23
     d64:	8f 93       	push	r24
     d66:	9f 93       	push	r25
     d68:	af 93       	push	r26
     d6a:	bf 93       	push	r27
     d6c:	ef 93       	push	r30
     d6e:	ff 93       	push	r31
     d70:	e0 91 00 01 	lds	r30, 0x0100	; 0x800100 <Timer1_OCB_IntFptr>
     d74:	f0 91 01 01 	lds	r31, 0x0101	; 0x800101 <Timer1_OCB_IntFptr+0x1>
     d78:	30 97       	sbiw	r30, 0x00	; 0
     d7a:	09 f0       	breq	.+2      	; 0xd7e <__vector_8+0x30>
     d7c:	09 95       	icall
     d7e:	ff 91       	pop	r31
     d80:	ef 91       	pop	r30
     d82:	bf 91       	pop	r27
     d84:	af 91       	pop	r26
     d86:	9f 91       	pop	r25
     d88:	8f 91       	pop	r24
     d8a:	7f 91       	pop	r23
     d8c:	6f 91       	pop	r22
     d8e:	5f 91       	pop	r21
     d90:	4f 91       	pop	r20
     d92:	3f 91       	pop	r19
     d94:	2f 91       	pop	r18
     d96:	0f 90       	pop	r0
     d98:	0f be       	out	0x3f, r0	; 63
     d9a:	0f 90       	pop	r0
     d9c:	1f 90       	pop	r1
     d9e:	18 95       	reti

00000da0 <__vector_6>:
     da0:	1f 92       	push	r1
     da2:	0f 92       	push	r0
     da4:	0f b6       	in	r0, 0x3f	; 63
     da6:	0f 92       	push	r0
     da8:	11 24       	eor	r1, r1
     daa:	2f 93       	push	r18
     dac:	3f 93       	push	r19
     dae:	4f 93       	push	r20
     db0:	5f 93       	push	r21
     db2:	6f 93       	push	r22
     db4:	7f 93       	push	r23
     db6:	8f 93       	push	r24
     db8:	9f 93       	push	r25
     dba:	af 93       	push	r26
     dbc:	bf 93       	push	r27
     dbe:	ef 93       	push	r30
     dc0:	ff 93       	push	r31
     dc2:	e0 91 fe 00 	lds	r30, 0x00FE	; 0x8000fe <Timer1_ICU_IntFptr>
     dc6:	f0 91 ff 00 	lds	r31, 0x00FF	; 0x8000ff <Timer1_ICU_IntFptr+0x1>
     dca:	30 97       	sbiw	r30, 0x00	; 0
     dcc:	09 f0       	breq	.+2      	; 0xdd0 <__vector_6+0x30>
     dce:	09 95       	icall
     dd0:	ff 91       	pop	r31
     dd2:	ef 91       	pop	r30
     dd4:	bf 91       	pop	r27
     dd6:	af 91       	pop	r26
     dd8:	9f 91       	pop	r25
     dda:	8f 91       	pop	r24
     ddc:	7f 91       	pop	r23
     dde:	6f 91       	pop	r22
     de0:	5f 91       	pop	r21
     de2:	4f 91       	pop	r20
     de4:	3f 91       	pop	r19
     de6:	2f 91       	pop	r18
     de8:	0f 90       	pop	r0
     dea:	0f be       	out	0x3f, r0	; 63
     dec:	0f 90       	pop	r0
     dee:	1f 90       	pop	r1
     df0:	18 95       	reti

00000df2 <Uart_Init>:
     df2:	59 98       	cbi	0x0b, 1	; 11
     df4:	80 91 f2 00 	lds	r24, 0x00F2	; 0x8000f2 <uart>
     df8:	81 30       	cpi	r24, 0x01	; 1
     dfa:	21 f0       	breq	.+8      	; 0xe04 <Uart_Init+0x12>
     dfc:	82 30       	cpi	r24, 0x02	; 2
     dfe:	21 f4       	brne	.+8      	; 0xe08 <Uart_Init+0x16>
     e00:	80 eb       	ldi	r24, 0xB0	; 176
     e02:	03 c0       	rjmp	.+6      	; 0xe0a <Uart_Init+0x18>
     e04:	80 ea       	ldi	r24, 0xA0	; 160
     e06:	01 c0       	rjmp	.+2      	; 0xe0a <Uart_Init+0x18>
     e08:	80 e8       	ldi	r24, 0x80	; 128
     e0a:	90 91 f3 00 	lds	r25, 0x00F3	; 0x8000f3 <uart+0x1>
     e0e:	91 11       	cpse	r25, r1
     e10:	02 c0       	rjmp	.+4      	; 0xe16 <Uart_Init+0x24>
     e12:	87 7f       	andi	r24, 0xF7	; 247
     e14:	03 c0       	rjmp	.+6      	; 0xe1c <Uart_Init+0x2a>
     e16:	91 30       	cpi	r25, 0x01	; 1
     e18:	09 f4       	brne	.+2      	; 0xe1c <Uart_Init+0x2a>
     e1a:	88 60       	ori	r24, 0x08	; 8
     e1c:	90 91 f4 00 	lds	r25, 0x00F4	; 0x8000f4 <uart+0x2>
     e20:	92 30       	cpi	r25, 0x02	; 2
     e22:	89 f0       	breq	.+34     	; 0xe46 <Uart_Init+0x54>
     e24:	38 f4       	brcc	.+14     	; 0xe34 <Uart_Init+0x42>
     e26:	99 23       	and	r25, r25
     e28:	61 f0       	breq	.+24     	; 0xe42 <Uart_Init+0x50>
     e2a:	91 30       	cpi	r25, 0x01	; 1
     e2c:	91 f4       	brne	.+36     	; 0xe52 <Uart_Init+0x60>
     e2e:	8b 7f       	andi	r24, 0xFB	; 251
     e30:	82 60       	ori	r24, 0x02	; 2
     e32:	0b c0       	rjmp	.+22     	; 0xe4a <Uart_Init+0x58>
     e34:	93 30       	cpi	r25, 0x03	; 3
     e36:	59 f0       	breq	.+22     	; 0xe4e <Uart_Init+0x5c>
     e38:	94 30       	cpi	r25, 0x04	; 4
     e3a:	59 f4       	brne	.+22     	; 0xe52 <Uart_Init+0x60>
     e3c:	86 60       	ori	r24, 0x06	; 6
     e3e:	52 9a       	sbi	0x0a, 2	; 10
     e40:	08 c0       	rjmp	.+16     	; 0xe52 <Uart_Init+0x60>
     e42:	89 7f       	andi	r24, 0xF9	; 249
     e44:	02 c0       	rjmp	.+4      	; 0xe4a <Uart_Init+0x58>
     e46:	8d 7f       	andi	r24, 0xFD	; 253
     e48:	84 60       	ori	r24, 0x04	; 4
     e4a:	52 98       	cbi	0x0a, 2	; 10
     e4c:	02 c0       	rjmp	.+4      	; 0xe52 <Uart_Init+0x60>
     e4e:	86 60       	ori	r24, 0x06	; 6
     e50:	fc cf       	rjmp	.-8      	; 0xe4a <Uart_Init+0x58>
     e52:	80 bd       	out	0x20, r24	; 32
     e54:	e0 91 f5 00 	lds	r30, 0x00F5	; 0x8000f5 <uart+0x3>
     e58:	8e 2f       	mov	r24, r30
     e5a:	90 e0       	ldi	r25, 0x00	; 0
     e5c:	8e 30       	cpi	r24, 0x0E	; 14
     e5e:	91 05       	cpc	r25, r1
     e60:	e8 f4       	brcc	.+58     	; 0xe9c <Uart_Init+0xaa>
     e62:	fc 01       	movw	r30, r24
     e64:	e6 5d       	subi	r30, 0xD6	; 214
     e66:	ff 4f       	sbci	r31, 0xFF	; 255
     e68:	0c 94 79 08 	jmp	0x10f2	; 0x10f2 <__tablejump2__>
     e6c:	8f ec       	ldi	r24, 0xCF	; 207
     e6e:	01 c0       	rjmp	.+2      	; 0xe72 <Uart_Init+0x80>
     e70:	87 e6       	ldi	r24, 0x67	; 103
     e72:	89 b9       	out	0x09, r24	; 9
     e74:	13 c0       	rjmp	.+38     	; 0xe9c <Uart_Init+0xaa>
     e76:	83 e3       	ldi	r24, 0x33	; 51
     e78:	fc cf       	rjmp	.-8      	; 0xe72 <Uart_Init+0x80>
     e7a:	82 e2       	ldi	r24, 0x22	; 34
     e7c:	fa cf       	rjmp	.-12     	; 0xe72 <Uart_Init+0x80>
     e7e:	89 e1       	ldi	r24, 0x19	; 25
     e80:	f8 cf       	rjmp	.-16     	; 0xe72 <Uart_Init+0x80>
     e82:	80 e1       	ldi	r24, 0x10	; 16
     e84:	f6 cf       	rjmp	.-20     	; 0xe72 <Uart_Init+0x80>
     e86:	8c e0       	ldi	r24, 0x0C	; 12
     e88:	f4 cf       	rjmp	.-24     	; 0xe72 <Uart_Init+0x80>
     e8a:	88 e0       	ldi	r24, 0x08	; 8
     e8c:	f2 cf       	rjmp	.-28     	; 0xe72 <Uart_Init+0x80>
     e8e:	86 e0       	ldi	r24, 0x06	; 6
     e90:	f0 cf       	rjmp	.-32     	; 0xe72 <Uart_Init+0x80>
     e92:	83 e0       	ldi	r24, 0x03	; 3
     e94:	ee cf       	rjmp	.-36     	; 0xe72 <Uart_Init+0x80>
     e96:	81 e0       	ldi	r24, 0x01	; 1
     e98:	ec cf       	rjmp	.-40     	; 0xe72 <Uart_Init+0x80>
     e9a:	19 b8       	out	0x09, r1	; 9
     e9c:	53 9a       	sbi	0x0a, 3	; 10
     e9e:	54 9a       	sbi	0x0a, 4	; 10
     ea0:	08 95       	ret

00000ea2 <Uart_Send>:
     ea2:	5d 9b       	sbis	0x0b, 5	; 11
     ea4:	fe cf       	rjmp	.-4      	; 0xea2 <Uart_Send>
     ea6:	8c b9       	out	0x0c, r24	; 12
     ea8:	08 95       	ret

00000eaa <Uart_ReceiveNoBlock>:
     eaa:	8c b1       	in	r24, 0x0c	; 12
     eac:	08 95       	ret

00000eae <Uart_RXC_IntEnable>:
     eae:	57 9a       	sbi	0x0a, 7	; 10
     eb0:	08 95       	ret

00000eb2 <Uart_RXC_IntSetCallBack>:
     eb2:	90 93 0d 01 	sts	0x010D, r25	; 0x80010d <Uart_RXC_IntFptr+0x1>
     eb6:	80 93 0c 01 	sts	0x010C, r24	; 0x80010c <Uart_RXC_IntFptr>
     eba:	08 95       	ret

00000ebc <__vector_15>:
     ebc:	1f 92       	push	r1
     ebe:	0f 92       	push	r0
     ec0:	0f b6       	in	r0, 0x3f	; 63
     ec2:	0f 92       	push	r0
     ec4:	11 24       	eor	r1, r1
     ec6:	2f 93       	push	r18
     ec8:	3f 93       	push	r19
     eca:	4f 93       	push	r20
     ecc:	5f 93       	push	r21
     ece:	6f 93       	push	r22
     ed0:	7f 93       	push	r23
     ed2:	8f 93       	push	r24
     ed4:	9f 93       	push	r25
     ed6:	af 93       	push	r26
     ed8:	bf 93       	push	r27
     eda:	ef 93       	push	r30
     edc:	ff 93       	push	r31
     ede:	e0 91 0e 01 	lds	r30, 0x010E	; 0x80010e <Uart_TXC_IntFptr>
     ee2:	f0 91 0f 01 	lds	r31, 0x010F	; 0x80010f <Uart_TXC_IntFptr+0x1>
     ee6:	30 97       	sbiw	r30, 0x00	; 0
     ee8:	09 f0       	breq	.+2      	; 0xeec <__vector_15+0x30>
     eea:	09 95       	icall
     eec:	ff 91       	pop	r31
     eee:	ef 91       	pop	r30
     ef0:	bf 91       	pop	r27
     ef2:	af 91       	pop	r26
     ef4:	9f 91       	pop	r25
     ef6:	8f 91       	pop	r24
     ef8:	7f 91       	pop	r23
     efa:	6f 91       	pop	r22
     efc:	5f 91       	pop	r21
     efe:	4f 91       	pop	r20
     f00:	3f 91       	pop	r19
     f02:	2f 91       	pop	r18
     f04:	0f 90       	pop	r0
     f06:	0f be       	out	0x3f, r0	; 63
     f08:	0f 90       	pop	r0
     f0a:	1f 90       	pop	r1
     f0c:	18 95       	reti

00000f0e <__vector_13>:
     f0e:	1f 92       	push	r1
     f10:	0f 92       	push	r0
     f12:	0f b6       	in	r0, 0x3f	; 63
     f14:	0f 92       	push	r0
     f16:	11 24       	eor	r1, r1
     f18:	2f 93       	push	r18
     f1a:	3f 93       	push	r19
     f1c:	4f 93       	push	r20
     f1e:	5f 93       	push	r21
     f20:	6f 93       	push	r22
     f22:	7f 93       	push	r23
     f24:	8f 93       	push	r24
     f26:	9f 93       	push	r25
     f28:	af 93       	push	r26
     f2a:	bf 93       	push	r27
     f2c:	ef 93       	push	r30
     f2e:	ff 93       	push	r31
     f30:	e0 91 0c 01 	lds	r30, 0x010C	; 0x80010c <Uart_RXC_IntFptr>
     f34:	f0 91 0d 01 	lds	r31, 0x010D	; 0x80010d <Uart_RXC_IntFptr+0x1>
     f38:	30 97       	sbiw	r30, 0x00	; 0
     f3a:	09 f0       	breq	.+2      	; 0xf3e <__vector_13+0x30>
     f3c:	09 95       	icall
     f3e:	ff 91       	pop	r31
     f40:	ef 91       	pop	r30
     f42:	bf 91       	pop	r27
     f44:	af 91       	pop	r26
     f46:	9f 91       	pop	r25
     f48:	8f 91       	pop	r24
     f4a:	7f 91       	pop	r23
     f4c:	6f 91       	pop	r22
     f4e:	5f 91       	pop	r21
     f50:	4f 91       	pop	r20
     f52:	3f 91       	pop	r19
     f54:	2f 91       	pop	r18
     f56:	0f 90       	pop	r0
     f58:	0f be       	out	0x3f, r0	; 63
     f5a:	0f 90       	pop	r0
     f5c:	1f 90       	pop	r1
     f5e:	18 95       	reti

00000f60 <__vector_14>:
     f60:	1f 92       	push	r1
     f62:	0f 92       	push	r0
     f64:	0f b6       	in	r0, 0x3f	; 63
     f66:	0f 92       	push	r0
     f68:	11 24       	eor	r1, r1
     f6a:	2f 93       	push	r18
     f6c:	3f 93       	push	r19
     f6e:	4f 93       	push	r20
     f70:	5f 93       	push	r21
     f72:	6f 93       	push	r22
     f74:	7f 93       	push	r23
     f76:	8f 93       	push	r24
     f78:	9f 93       	push	r25
     f7a:	af 93       	push	r26
     f7c:	bf 93       	push	r27
     f7e:	ef 93       	push	r30
     f80:	ff 93       	push	r31
     f82:	e0 91 0a 01 	lds	r30, 0x010A	; 0x80010a <Uart_DEMPTY_IntFptr>
     f86:	f0 91 0b 01 	lds	r31, 0x010B	; 0x80010b <Uart_DEMPTY_IntFptr+0x1>
     f8a:	30 97       	sbiw	r30, 0x00	; 0
     f8c:	09 f0       	breq	.+2      	; 0xf90 <__vector_14+0x30>
     f8e:	09 95       	icall
     f90:	ff 91       	pop	r31
     f92:	ef 91       	pop	r30
     f94:	bf 91       	pop	r27
     f96:	af 91       	pop	r26
     f98:	9f 91       	pop	r25
     f9a:	8f 91       	pop	r24
     f9c:	7f 91       	pop	r23
     f9e:	6f 91       	pop	r22
     fa0:	5f 91       	pop	r21
     fa2:	4f 91       	pop	r20
     fa4:	3f 91       	pop	r19
     fa6:	2f 91       	pop	r18
     fa8:	0f 90       	pop	r0
     faa:	0f be       	out	0x3f, r0	; 63
     fac:	0f 90       	pop	r0
     fae:	1f 90       	pop	r1
     fb0:	18 95       	reti

00000fb2 <Uart_RXC_Func>:
     fb2:	cf 93       	push	r28
     fb4:	df 93       	push	r29
     fb6:	80 91 10 01 	lds	r24, 0x0110	; 0x800110 <i.1724>
     fba:	c0 91 11 01 	lds	r28, 0x0111	; 0x800111 <Preceive_str>
     fbe:	d0 91 12 01 	lds	r29, 0x0112	; 0x800112 <Preceive_str+0x1>
     fc2:	c8 0f       	add	r28, r24
     fc4:	d1 1d       	adc	r29, r1
     fc6:	0e 94 55 07 	call	0xeaa	; 0xeaa <Uart_ReceiveNoBlock>
     fca:	88 83       	st	Y, r24
     fcc:	80 91 10 01 	lds	r24, 0x0110	; 0x800110 <i.1724>
     fd0:	e0 91 11 01 	lds	r30, 0x0111	; 0x800111 <Preceive_str>
     fd4:	f0 91 12 01 	lds	r31, 0x0112	; 0x800112 <Preceive_str+0x1>
     fd8:	e8 0f       	add	r30, r24
     fda:	f1 1d       	adc	r31, r1
     fdc:	90 81       	ld	r25, Z
     fde:	93 32       	cpi	r25, 0x23	; 35
     fe0:	21 f4       	brne	.+8      	; 0xfea <Uart_RXC_Func+0x38>
     fe2:	10 82       	st	Z, r1
     fe4:	10 92 10 01 	sts	0x0110, r1	; 0x800110 <i.1724>
     fe8:	03 c0       	rjmp	.+6      	; 0xff0 <Uart_RXC_Func+0x3e>
     fea:	8f 5f       	subi	r24, 0xFF	; 255
     fec:	80 93 10 01 	sts	0x0110, r24	; 0x800110 <i.1724>
     ff0:	df 91       	pop	r29
     ff2:	cf 91       	pop	r28
     ff4:	08 95       	ret

00000ff6 <Uart_SendString>:
     ff6:	0f 93       	push	r16
     ff8:	1f 93       	push	r17
     ffa:	cf 93       	push	r28
     ffc:	8c 01       	movw	r16, r24
     ffe:	c0 e0       	ldi	r28, 0x00	; 0
    1000:	f8 01       	movw	r30, r16
    1002:	ec 0f       	add	r30, r28
    1004:	f1 1d       	adc	r31, r1
    1006:	80 81       	ld	r24, Z
    1008:	88 23       	and	r24, r24
    100a:	21 f0       	breq	.+8      	; 0x1014 <Uart_SendString+0x1e>
    100c:	0e 94 51 07 	call	0xea2	; 0xea2 <Uart_Send>
    1010:	cf 5f       	subi	r28, 0xFF	; 255
    1012:	f6 cf       	rjmp	.-20     	; 0x1000 <Uart_SendString+0xa>
    1014:	cf 91       	pop	r28
    1016:	1f 91       	pop	r17
    1018:	0f 91       	pop	r16
    101a:	08 95       	ret

0000101c <Uart_ReceiveStringAsyn>:
    101c:	90 93 12 01 	sts	0x0112, r25	; 0x800112 <Preceive_str+0x1>
    1020:	80 93 11 01 	sts	0x0111, r24	; 0x800111 <Preceive_str>
    1024:	0e 94 57 07 	call	0xeae	; 0xeae <Uart_RXC_IntEnable>
    1028:	89 ed       	ldi	r24, 0xD9	; 217
    102a:	97 e0       	ldi	r25, 0x07	; 7
    102c:	0c 94 59 07 	jmp	0xeb2	; 0xeb2 <Uart_RXC_IntSetCallBack>

00001030 <__udivmodqi4>:
    1030:	99 1b       	sub	r25, r25
    1032:	79 e0       	ldi	r23, 0x09	; 9
    1034:	04 c0       	rjmp	.+8      	; 0x103e <__udivmodqi4_ep>

00001036 <__udivmodqi4_loop>:
    1036:	99 1f       	adc	r25, r25
    1038:	96 17       	cp	r25, r22
    103a:	08 f0       	brcs	.+2      	; 0x103e <__udivmodqi4_ep>
    103c:	96 1b       	sub	r25, r22

0000103e <__udivmodqi4_ep>:
    103e:	88 1f       	adc	r24, r24
    1040:	7a 95       	dec	r23
    1042:	c9 f7       	brne	.-14     	; 0x1036 <__udivmodqi4_loop>
    1044:	80 95       	com	r24
    1046:	08 95       	ret

00001048 <__udivmodhi4>:
    1048:	aa 1b       	sub	r26, r26
    104a:	bb 1b       	sub	r27, r27
    104c:	51 e1       	ldi	r21, 0x11	; 17
    104e:	07 c0       	rjmp	.+14     	; 0x105e <__udivmodhi4_ep>

00001050 <__udivmodhi4_loop>:
    1050:	aa 1f       	adc	r26, r26
    1052:	bb 1f       	adc	r27, r27
    1054:	a6 17       	cp	r26, r22
    1056:	b7 07       	cpc	r27, r23
    1058:	10 f0       	brcs	.+4      	; 0x105e <__udivmodhi4_ep>
    105a:	a6 1b       	sub	r26, r22
    105c:	b7 0b       	sbc	r27, r23

0000105e <__udivmodhi4_ep>:
    105e:	88 1f       	adc	r24, r24
    1060:	99 1f       	adc	r25, r25
    1062:	5a 95       	dec	r21
    1064:	a9 f7       	brne	.-22     	; 0x1050 <__udivmodhi4_loop>
    1066:	80 95       	com	r24
    1068:	90 95       	com	r25
    106a:	bc 01       	movw	r22, r24
    106c:	cd 01       	movw	r24, r26
    106e:	08 95       	ret

00001070 <__udivmodsi4>:
    1070:	a1 e2       	ldi	r26, 0x21	; 33
    1072:	1a 2e       	mov	r1, r26
    1074:	aa 1b       	sub	r26, r26
    1076:	bb 1b       	sub	r27, r27
    1078:	fd 01       	movw	r30, r26
    107a:	0d c0       	rjmp	.+26     	; 0x1096 <__udivmodsi4_ep>

0000107c <__udivmodsi4_loop>:
    107c:	aa 1f       	adc	r26, r26
    107e:	bb 1f       	adc	r27, r27
    1080:	ee 1f       	adc	r30, r30
    1082:	ff 1f       	adc	r31, r31
    1084:	a2 17       	cp	r26, r18
    1086:	b3 07       	cpc	r27, r19
    1088:	e4 07       	cpc	r30, r20
    108a:	f5 07       	cpc	r31, r21
    108c:	20 f0       	brcs	.+8      	; 0x1096 <__udivmodsi4_ep>
    108e:	a2 1b       	sub	r26, r18
    1090:	b3 0b       	sbc	r27, r19
    1092:	e4 0b       	sbc	r30, r20
    1094:	f5 0b       	sbc	r31, r21

00001096 <__udivmodsi4_ep>:
    1096:	66 1f       	adc	r22, r22
    1098:	77 1f       	adc	r23, r23
    109a:	88 1f       	adc	r24, r24
    109c:	99 1f       	adc	r25, r25
    109e:	1a 94       	dec	r1
    10a0:	69 f7       	brne	.-38     	; 0x107c <__udivmodsi4_loop>
    10a2:	60 95       	com	r22
    10a4:	70 95       	com	r23
    10a6:	80 95       	com	r24
    10a8:	90 95       	com	r25
    10aa:	9b 01       	movw	r18, r22
    10ac:	ac 01       	movw	r20, r24
    10ae:	bd 01       	movw	r22, r26
    10b0:	cf 01       	movw	r24, r30
    10b2:	08 95       	ret

000010b4 <__divmodsi4>:
    10b4:	05 2e       	mov	r0, r21
    10b6:	97 fb       	bst	r25, 7
    10b8:	1e f4       	brtc	.+6      	; 0x10c0 <__divmodsi4+0xc>
    10ba:	00 94       	com	r0
    10bc:	0e 94 71 08 	call	0x10e2	; 0x10e2 <__negsi2>
    10c0:	57 fd       	sbrc	r21, 7
    10c2:	07 d0       	rcall	.+14     	; 0x10d2 <__divmodsi4_neg2>
    10c4:	0e 94 38 08 	call	0x1070	; 0x1070 <__udivmodsi4>
    10c8:	07 fc       	sbrc	r0, 7
    10ca:	03 d0       	rcall	.+6      	; 0x10d2 <__divmodsi4_neg2>
    10cc:	4e f4       	brtc	.+18     	; 0x10e0 <__divmodsi4_exit>
    10ce:	0c 94 71 08 	jmp	0x10e2	; 0x10e2 <__negsi2>

000010d2 <__divmodsi4_neg2>:
    10d2:	50 95       	com	r21
    10d4:	40 95       	com	r20
    10d6:	30 95       	com	r19
    10d8:	21 95       	neg	r18
    10da:	3f 4f       	sbci	r19, 0xFF	; 255
    10dc:	4f 4f       	sbci	r20, 0xFF	; 255
    10de:	5f 4f       	sbci	r21, 0xFF	; 255

000010e0 <__divmodsi4_exit>:
    10e0:	08 95       	ret

000010e2 <__negsi2>:
    10e2:	90 95       	com	r25
    10e4:	80 95       	com	r24
    10e6:	70 95       	com	r23
    10e8:	61 95       	neg	r22
    10ea:	7f 4f       	sbci	r23, 0xFF	; 255
    10ec:	8f 4f       	sbci	r24, 0xFF	; 255
    10ee:	9f 4f       	sbci	r25, 0xFF	; 255
    10f0:	08 95       	ret

000010f2 <__tablejump2__>:
    10f2:	ee 0f       	add	r30, r30
    10f4:	ff 1f       	adc	r31, r31
    10f6:	05 90       	lpm	r0, Z+
    10f8:	f4 91       	lpm	r31, Z
    10fa:	e0 2d       	mov	r30, r0
    10fc:	09 94       	ijmp

000010fe <__umulhisi3>:
    10fe:	a2 9f       	mul	r26, r18
    1100:	b0 01       	movw	r22, r0
    1102:	b3 9f       	mul	r27, r19
    1104:	c0 01       	movw	r24, r0
    1106:	a3 9f       	mul	r26, r19
    1108:	70 0d       	add	r23, r0
    110a:	81 1d       	adc	r24, r1
    110c:	11 24       	eor	r1, r1
    110e:	91 1d       	adc	r25, r1
    1110:	b2 9f       	mul	r27, r18
    1112:	70 0d       	add	r23, r0
    1114:	81 1d       	adc	r24, r1
    1116:	11 24       	eor	r1, r1
    1118:	91 1d       	adc	r25, r1
    111a:	08 95       	ret

0000111c <strcmp>:
    111c:	fb 01       	movw	r30, r22
    111e:	dc 01       	movw	r26, r24
    1120:	8d 91       	ld	r24, X+
    1122:	01 90       	ld	r0, Z+
    1124:	80 19       	sub	r24, r0
    1126:	01 10       	cpse	r0, r1
    1128:	d9 f3       	breq	.-10     	; 0x1120 <strcmp+0x4>
    112a:	99 0b       	sbc	r25, r25
    112c:	08 95       	ret

0000112e <_exit>:
    112e:	f8 94       	cli

00001130 <__stop_program>:
    1130:	ff cf       	rjmp	.-2      	; 0x1130 <__stop_program>
