
AVR_Drivers.elf:     file format elf32-avr

Sections:
Idx Name          Size      VMA       LMA       File off  Algn
  0 .text         00000954  00000000  00000000  00000074  2**1
                  CONTENTS, ALLOC, LOAD, READONLY, CODE
  1 .data         0000003e  00800060  00000954  000009c8  2**0
                  CONTENTS, ALLOC, LOAD, DATA
  2 .comment      00000030  00000000  00000000  00000a06  2**0
                  CONTENTS, READONLY
  3 .note.gnu.avr.deviceinfo 0000003c  00000000  00000000  00000a38  2**2
                  CONTENTS, READONLY
  4 .debug_info   000004e6  00000000  00000000  00000a74  2**0
                  CONTENTS, READONLY, DEBUGGING
  5 .debug_abbrev 000004a3  00000000  00000000  00000f5a  2**0
                  CONTENTS, READONLY, DEBUGGING
  6 .debug_line   00000115  00000000  00000000  000013fd  2**0
                  CONTENTS, READONLY, DEBUGGING
  7 .debug_str    00000196  00000000  00000000  00001512  2**0
                  CONTENTS, READONLY, DEBUGGING

Disassembly of section .text:

00000000 <__vectors>:
   0:	0c 94 2a 00 	jmp	0x54	; 0x54 <__ctors_end>
   4:	0c 94 3f 00 	jmp	0x7e	; 0x7e <__bad_interrupt>
   8:	0c 94 3f 00 	jmp	0x7e	; 0x7e <__bad_interrupt>
   c:	0c 94 3f 00 	jmp	0x7e	; 0x7e <__bad_interrupt>
  10:	0c 94 3f 00 	jmp	0x7e	; 0x7e <__bad_interrupt>
  14:	0c 94 3f 00 	jmp	0x7e	; 0x7e <__bad_interrupt>
  18:	0c 94 3f 00 	jmp	0x7e	; 0x7e <__bad_interrupt>
  1c:	0c 94 3f 00 	jmp	0x7e	; 0x7e <__bad_interrupt>
  20:	0c 94 3f 00 	jmp	0x7e	; 0x7e <__bad_interrupt>
  24:	0c 94 3f 00 	jmp	0x7e	; 0x7e <__bad_interrupt>
  28:	0c 94 3f 00 	jmp	0x7e	; 0x7e <__bad_interrupt>
  2c:	0c 94 3f 00 	jmp	0x7e	; 0x7e <__bad_interrupt>
  30:	0c 94 3f 00 	jmp	0x7e	; 0x7e <__bad_interrupt>
  34:	0c 94 3f 00 	jmp	0x7e	; 0x7e <__bad_interrupt>
  38:	0c 94 3f 00 	jmp	0x7e	; 0x7e <__bad_interrupt>
  3c:	0c 94 3f 00 	jmp	0x7e	; 0x7e <__bad_interrupt>
  40:	0c 94 3f 00 	jmp	0x7e	; 0x7e <__bad_interrupt>
  44:	0c 94 3f 00 	jmp	0x7e	; 0x7e <__bad_interrupt>
  48:	0c 94 3f 00 	jmp	0x7e	; 0x7e <__bad_interrupt>
  4c:	0c 94 3f 00 	jmp	0x7e	; 0x7e <__bad_interrupt>
  50:	0c 94 3f 00 	jmp	0x7e	; 0x7e <__bad_interrupt>

00000054 <__ctors_end>:
  54:	11 24       	eor	r1, r1
  56:	1f be       	out	0x3f, r1	; 63
  58:	cf e5       	ldi	r28, 0x5F	; 95
  5a:	d8 e0       	ldi	r29, 0x08	; 8
  5c:	de bf       	out	0x3e, r29	; 62
  5e:	cd bf       	out	0x3d, r28	; 61

00000060 <__do_copy_data>:
  60:	10 e0       	ldi	r17, 0x00	; 0
  62:	a0 e6       	ldi	r26, 0x60	; 96
  64:	b0 e0       	ldi	r27, 0x00	; 0
  66:	e4 e5       	ldi	r30, 0x54	; 84
  68:	f9 e0       	ldi	r31, 0x09	; 9
  6a:	02 c0       	rjmp	.+4      	; 0x70 <__do_copy_data+0x10>
  6c:	05 90       	lpm	r0, Z+
  6e:	0d 92       	st	X+, r0
  70:	ae 39       	cpi	r26, 0x9E	; 158
  72:	b1 07       	cpc	r27, r17
  74:	d9 f7       	brne	.-10     	; 0x6c <__do_copy_data+0xc>
  76:	0e 94 fc 01 	call	0x3f8	; 0x3f8 <main>
  7a:	0c 94 a8 04 	jmp	0x950	; 0x950 <_exit>

0000007e <__bad_interrupt>:
  7e:	0c 94 00 00 	jmp	0	; 0x0 <__vectors>

00000082 <LCD_SendCommand>:
  82:	cf 93       	push	r28
  84:	c8 2f       	mov	r28, r24
  86:	68 2f       	mov	r22, r24
  88:	66 1f       	adc	r22, r22
  8a:	66 27       	eor	r22, r22
  8c:	66 1f       	adc	r22, r22
  8e:	87 e0       	ldi	r24, 0x07	; 7
  90:	0e 94 25 03 	call	0x64a	; 0x64a <DIO_WritePin>
  94:	c6 fb       	bst	r28, 6
  96:	66 27       	eor	r22, r22
  98:	60 f9       	bld	r22, 0
  9a:	86 e0       	ldi	r24, 0x06	; 6
  9c:	0e 94 25 03 	call	0x64a	; 0x64a <DIO_WritePin>
  a0:	c5 fb       	bst	r28, 5
  a2:	66 27       	eor	r22, r22
  a4:	60 f9       	bld	r22, 0
  a6:	85 e0       	ldi	r24, 0x05	; 5
  a8:	0e 94 25 03 	call	0x64a	; 0x64a <DIO_WritePin>
  ac:	c4 fb       	bst	r28, 4
  ae:	66 27       	eor	r22, r22
  b0:	60 f9       	bld	r22, 0
  b2:	84 e0       	ldi	r24, 0x04	; 4
  b4:	0e 94 25 03 	call	0x64a	; 0x64a <DIO_WritePin>
  b8:	60 e0       	ldi	r22, 0x00	; 0
  ba:	8a e0       	ldi	r24, 0x0A	; 10
  bc:	0e 94 25 03 	call	0x64a	; 0x64a <DIO_WritePin>
  c0:	60 e0       	ldi	r22, 0x00	; 0
  c2:	89 e0       	ldi	r24, 0x09	; 9
  c4:	0e 94 25 03 	call	0x64a	; 0x64a <DIO_WritePin>
  c8:	61 e0       	ldi	r22, 0x01	; 1
  ca:	88 e0       	ldi	r24, 0x08	; 8
  cc:	0e 94 25 03 	call	0x64a	; 0x64a <DIO_WritePin>
  d0:	8f ec       	ldi	r24, 0xCF	; 207
  d2:	97 e0       	ldi	r25, 0x07	; 7
  d4:	01 97       	sbiw	r24, 0x01	; 1
  d6:	f1 f7       	brne	.-4      	; 0xd4 <LCD_SendCommand+0x52>
  d8:	00 c0       	rjmp	.+0      	; 0xda <LCD_SendCommand+0x58>
  da:	00 00       	nop
  dc:	60 e0       	ldi	r22, 0x00	; 0
  de:	88 e0       	ldi	r24, 0x08	; 8
  e0:	0e 94 25 03 	call	0x64a	; 0x64a <DIO_WritePin>
  e4:	8f ec       	ldi	r24, 0xCF	; 207
  e6:	97 e0       	ldi	r25, 0x07	; 7
  e8:	01 97       	sbiw	r24, 0x01	; 1
  ea:	f1 f7       	brne	.-4      	; 0xe8 <LCD_SendCommand+0x66>
  ec:	00 c0       	rjmp	.+0      	; 0xee <LCD_SendCommand+0x6c>
  ee:	00 00       	nop
  f0:	c3 fb       	bst	r28, 3
  f2:	66 27       	eor	r22, r22
  f4:	60 f9       	bld	r22, 0
  f6:	87 e0       	ldi	r24, 0x07	; 7
  f8:	0e 94 25 03 	call	0x64a	; 0x64a <DIO_WritePin>
  fc:	c2 fb       	bst	r28, 2
  fe:	66 27       	eor	r22, r22
 100:	60 f9       	bld	r22, 0
 102:	86 e0       	ldi	r24, 0x06	; 6
 104:	0e 94 25 03 	call	0x64a	; 0x64a <DIO_WritePin>
 108:	c1 fb       	bst	r28, 1
 10a:	66 27       	eor	r22, r22
 10c:	60 f9       	bld	r22, 0
 10e:	85 e0       	ldi	r24, 0x05	; 5
 110:	0e 94 25 03 	call	0x64a	; 0x64a <DIO_WritePin>
 114:	6c 2f       	mov	r22, r28
 116:	61 70       	andi	r22, 0x01	; 1
 118:	84 e0       	ldi	r24, 0x04	; 4
 11a:	0e 94 25 03 	call	0x64a	; 0x64a <DIO_WritePin>
 11e:	61 e0       	ldi	r22, 0x01	; 1
 120:	88 e0       	ldi	r24, 0x08	; 8
 122:	0e 94 25 03 	call	0x64a	; 0x64a <DIO_WritePin>
 126:	8f ec       	ldi	r24, 0xCF	; 207
 128:	97 e0       	ldi	r25, 0x07	; 7
 12a:	01 97       	sbiw	r24, 0x01	; 1
 12c:	f1 f7       	brne	.-4      	; 0x12a <LCD_SendCommand+0xa8>
 12e:	00 c0       	rjmp	.+0      	; 0x130 <LCD_SendCommand+0xae>
 130:	00 00       	nop
 132:	60 e0       	ldi	r22, 0x00	; 0
 134:	88 e0       	ldi	r24, 0x08	; 8
 136:	0e 94 25 03 	call	0x64a	; 0x64a <DIO_WritePin>
 13a:	8f ec       	ldi	r24, 0xCF	; 207
 13c:	97 e0       	ldi	r25, 0x07	; 7
 13e:	01 97       	sbiw	r24, 0x01	; 1
 140:	f1 f7       	brne	.-4      	; 0x13e <LCD_SendCommand+0xbc>
 142:	00 c0       	rjmp	.+0      	; 0x144 <LCD_SendCommand+0xc2>
 144:	00 00       	nop
 146:	cf 91       	pop	r28
 148:	08 95       	ret

0000014a <LCD_SendData>:
 14a:	cf 93       	push	r28
 14c:	c8 2f       	mov	r28, r24
 14e:	68 2f       	mov	r22, r24
 150:	66 1f       	adc	r22, r22
 152:	66 27       	eor	r22, r22
 154:	66 1f       	adc	r22, r22
 156:	87 e0       	ldi	r24, 0x07	; 7
 158:	0e 94 25 03 	call	0x64a	; 0x64a <DIO_WritePin>
 15c:	c6 fb       	bst	r28, 6
 15e:	66 27       	eor	r22, r22
 160:	60 f9       	bld	r22, 0
 162:	86 e0       	ldi	r24, 0x06	; 6
 164:	0e 94 25 03 	call	0x64a	; 0x64a <DIO_WritePin>
 168:	c5 fb       	bst	r28, 5
 16a:	66 27       	eor	r22, r22
 16c:	60 f9       	bld	r22, 0
 16e:	85 e0       	ldi	r24, 0x05	; 5
 170:	0e 94 25 03 	call	0x64a	; 0x64a <DIO_WritePin>
 174:	c4 fb       	bst	r28, 4
 176:	66 27       	eor	r22, r22
 178:	60 f9       	bld	r22, 0
 17a:	84 e0       	ldi	r24, 0x04	; 4
 17c:	0e 94 25 03 	call	0x64a	; 0x64a <DIO_WritePin>
 180:	61 e0       	ldi	r22, 0x01	; 1
 182:	8a e0       	ldi	r24, 0x0A	; 10
 184:	0e 94 25 03 	call	0x64a	; 0x64a <DIO_WritePin>
 188:	61 e0       	ldi	r22, 0x01	; 1
 18a:	88 e0       	ldi	r24, 0x08	; 8
 18c:	0e 94 25 03 	call	0x64a	; 0x64a <DIO_WritePin>
 190:	8f ec       	ldi	r24, 0xCF	; 207
 192:	97 e0       	ldi	r25, 0x07	; 7
 194:	01 97       	sbiw	r24, 0x01	; 1
 196:	f1 f7       	brne	.-4      	; 0x194 <LCD_SendData+0x4a>
 198:	00 c0       	rjmp	.+0      	; 0x19a <LCD_SendData+0x50>
 19a:	00 00       	nop
 19c:	60 e0       	ldi	r22, 0x00	; 0
 19e:	88 e0       	ldi	r24, 0x08	; 8
 1a0:	0e 94 25 03 	call	0x64a	; 0x64a <DIO_WritePin>
 1a4:	8f ec       	ldi	r24, 0xCF	; 207
 1a6:	97 e0       	ldi	r25, 0x07	; 7
 1a8:	01 97       	sbiw	r24, 0x01	; 1
 1aa:	f1 f7       	brne	.-4      	; 0x1a8 <LCD_SendData+0x5e>
 1ac:	00 c0       	rjmp	.+0      	; 0x1ae <LCD_SendData+0x64>
 1ae:	00 00       	nop
 1b0:	c3 fb       	bst	r28, 3
 1b2:	66 27       	eor	r22, r22
 1b4:	60 f9       	bld	r22, 0
 1b6:	87 e0       	ldi	r24, 0x07	; 7
 1b8:	0e 94 25 03 	call	0x64a	; 0x64a <DIO_WritePin>
 1bc:	c2 fb       	bst	r28, 2
 1be:	66 27       	eor	r22, r22
 1c0:	60 f9       	bld	r22, 0
 1c2:	86 e0       	ldi	r24, 0x06	; 6
 1c4:	0e 94 25 03 	call	0x64a	; 0x64a <DIO_WritePin>
 1c8:	c1 fb       	bst	r28, 1
 1ca:	66 27       	eor	r22, r22
 1cc:	60 f9       	bld	r22, 0
 1ce:	85 e0       	ldi	r24, 0x05	; 5
 1d0:	0e 94 25 03 	call	0x64a	; 0x64a <DIO_WritePin>
 1d4:	6c 2f       	mov	r22, r28
 1d6:	61 70       	andi	r22, 0x01	; 1
 1d8:	84 e0       	ldi	r24, 0x04	; 4
 1da:	0e 94 25 03 	call	0x64a	; 0x64a <DIO_WritePin>
 1de:	61 e0       	ldi	r22, 0x01	; 1
 1e0:	88 e0       	ldi	r24, 0x08	; 8
 1e2:	0e 94 25 03 	call	0x64a	; 0x64a <DIO_WritePin>
 1e6:	8f ec       	ldi	r24, 0xCF	; 207
 1e8:	97 e0       	ldi	r25, 0x07	; 7
 1ea:	01 97       	sbiw	r24, 0x01	; 1
 1ec:	f1 f7       	brne	.-4      	; 0x1ea <LCD_SendData+0xa0>
 1ee:	00 c0       	rjmp	.+0      	; 0x1f0 <LCD_SendData+0xa6>
 1f0:	00 00       	nop
 1f2:	60 e0       	ldi	r22, 0x00	; 0
 1f4:	88 e0       	ldi	r24, 0x08	; 8
 1f6:	0e 94 25 03 	call	0x64a	; 0x64a <DIO_WritePin>
 1fa:	8f ec       	ldi	r24, 0xCF	; 207
 1fc:	97 e0       	ldi	r25, 0x07	; 7
 1fe:	01 97       	sbiw	r24, 0x01	; 1
 200:	f1 f7       	brne	.-4      	; 0x1fe <LCD_SendData+0xb4>
 202:	00 c0       	rjmp	.+0      	; 0x204 <LCD_SendData+0xba>
 204:	00 00       	nop
 206:	cf 91       	pop	r28
 208:	08 95       	ret

0000020a <LCD_Init>:
 20a:	8f e2       	ldi	r24, 0x2F	; 47
 20c:	95 e7       	ldi	r25, 0x75	; 117
 20e:	01 97       	sbiw	r24, 0x01	; 1
 210:	f1 f7       	brne	.-4      	; 0x20e <LCD_Init+0x4>
 212:	00 c0       	rjmp	.+0      	; 0x214 <LCD_Init+0xa>
 214:	00 00       	nop
 216:	82 e0       	ldi	r24, 0x02	; 2
 218:	0e 94 41 00 	call	0x82	; 0x82 <LCD_SendCommand>
 21c:	88 e2       	ldi	r24, 0x28	; 40
 21e:	0e 94 41 00 	call	0x82	; 0x82 <LCD_SendCommand>
 222:	8c e0       	ldi	r24, 0x0C	; 12
 224:	0e 94 41 00 	call	0x82	; 0x82 <LCD_SendCommand>
 228:	81 e0       	ldi	r24, 0x01	; 1
 22a:	0e 94 41 00 	call	0x82	; 0x82 <LCD_SendCommand>
 22e:	8f e9       	ldi	r24, 0x9F	; 159
 230:	9f e0       	ldi	r25, 0x0F	; 15
 232:	01 97       	sbiw	r24, 0x01	; 1
 234:	f1 f7       	brne	.-4      	; 0x232 <LCD_Init+0x28>
 236:	00 c0       	rjmp	.+0      	; 0x238 <LCD_Init+0x2e>
 238:	00 00       	nop
 23a:	08 95       	ret

0000023c <LCD_WriteChar>:
 23c:	0c 94 a5 00 	jmp	0x14a	; 0x14a <LCD_SendData>

00000240 <LCD_WriteString>:
 240:	0f 93       	push	r16
 242:	1f 93       	push	r17
 244:	cf 93       	push	r28
 246:	8c 01       	movw	r16, r24
 248:	c0 e0       	ldi	r28, 0x00	; 0
 24a:	f8 01       	movw	r30, r16
 24c:	ec 0f       	add	r30, r28
 24e:	f1 1d       	adc	r31, r1
 250:	80 81       	ld	r24, Z
 252:	88 23       	and	r24, r24
 254:	21 f0       	breq	.+8      	; 0x25e <LCD_WriteString+0x1e>
 256:	0e 94 a5 00 	call	0x14a	; 0x14a <LCD_SendData>
 25a:	cf 5f       	subi	r28, 0xFF	; 255
 25c:	f6 cf       	rjmp	.-20     	; 0x24a <LCD_WriteString+0xa>
 25e:	cf 91       	pop	r28
 260:	1f 91       	pop	r17
 262:	0f 91       	pop	r16
 264:	08 95       	ret

00000266 <LCD_GoTo>:
 266:	81 30       	cpi	r24, 0x01	; 1
 268:	39 f0       	breq	.+14     	; 0x278 <LCD_GoTo+0x12>
 26a:	58 f0       	brcs	.+22     	; 0x282 <LCD_GoTo+0x1c>
 26c:	82 30       	cpi	r24, 0x02	; 2
 26e:	31 f0       	breq	.+12     	; 0x27c <LCD_GoTo+0x16>
 270:	83 30       	cpi	r24, 0x03	; 3
 272:	31 f4       	brne	.+12     	; 0x280 <LCD_GoTo+0x1a>
 274:	6c 5a       	subi	r22, 0xAC	; 172
 276:	05 c0       	rjmp	.+10     	; 0x282 <LCD_GoTo+0x1c>
 278:	60 5c       	subi	r22, 0xC0	; 192
 27a:	03 c0       	rjmp	.+6      	; 0x282 <LCD_GoTo+0x1c>
 27c:	6c 5e       	subi	r22, 0xEC	; 236
 27e:	01 c0       	rjmp	.+2      	; 0x282 <LCD_GoTo+0x1c>
 280:	60 e0       	ldi	r22, 0x00	; 0
 282:	86 2f       	mov	r24, r22
 284:	80 68       	ori	r24, 0x80	; 128
 286:	0c 94 41 00 	jmp	0x82	; 0x82 <LCD_SendCommand>

0000028a <LCD_WriteStringRowCol>:
 28a:	cf 93       	push	r28
 28c:	df 93       	push	r29
 28e:	ea 01       	movw	r28, r20
 290:	0e 94 33 01 	call	0x266	; 0x266 <LCD_GoTo>
 294:	ce 01       	movw	r24, r28
 296:	df 91       	pop	r29
 298:	cf 91       	pop	r28
 29a:	0c 94 20 01 	jmp	0x240	; 0x240 <LCD_WriteString>

0000029e <LCD_WriteNum>:
 29e:	2f 92       	push	r2
 2a0:	3f 92       	push	r3
 2a2:	4f 92       	push	r4
 2a4:	5f 92       	push	r5
 2a6:	6f 92       	push	r6
 2a8:	7f 92       	push	r7
 2aa:	8f 92       	push	r8
 2ac:	9f 92       	push	r9
 2ae:	af 92       	push	r10
 2b0:	bf 92       	push	r11
 2b2:	cf 92       	push	r12
 2b4:	df 92       	push	r13
 2b6:	ef 92       	push	r14
 2b8:	ff 92       	push	r15
 2ba:	0f 93       	push	r16
 2bc:	1f 93       	push	r17
 2be:	cf 93       	push	r28
 2c0:	df 93       	push	r29
 2c2:	cd b7       	in	r28, 0x3d	; 61
 2c4:	de b7       	in	r29, 0x3e	; 62
 2c6:	2d 97       	sbiw	r28, 0x0d	; 13
 2c8:	0f b6       	in	r0, 0x3f	; 63
 2ca:	f8 94       	cli
 2cc:	de bf       	out	0x3e, r29	; 62
 2ce:	0f be       	out	0x3f, r0	; 63
 2d0:	cd bf       	out	0x3d, r28	; 61
 2d2:	29 01       	movw	r4, r18
 2d4:	3a 01       	movw	r6, r20
 2d6:	4b 01       	movw	r8, r22
 2d8:	1c 01       	movw	r2, r24
 2da:	a0 e0       	ldi	r26, 0x00	; 0
 2dc:	0e 94 9c 04 	call	0x938	; 0x938 <__cmpdi2_s8>
 2e0:	89 f0       	breq	.+34     	; 0x304 <LCD_WriteNum+0x66>
 2e2:	0e 94 9c 04 	call	0x938	; 0x938 <__cmpdi2_s8>
 2e6:	bc f4       	brge	.+46     	; 0x316 <LCD_WriteNum+0x78>
 2e8:	8d e2       	ldi	r24, 0x2D	; 45
 2ea:	0e 94 a5 00 	call	0x14a	; 0x14a <LCD_SendData>
 2ee:	92 01       	movw	r18, r4
 2f0:	a3 01       	movw	r20, r6
 2f2:	b4 01       	movw	r22, r8
 2f4:	c1 01       	movw	r24, r2
 2f6:	0e 94 49 04 	call	0x892	; 0x892 <__negdi2>
 2fa:	29 01       	movw	r4, r18
 2fc:	3a 01       	movw	r6, r20
 2fe:	4b 01       	movw	r8, r22
 300:	1c 01       	movw	r2, r24
 302:	09 c0       	rjmp	.+18     	; 0x316 <LCD_WriteNum+0x78>
 304:	90 e3       	ldi	r25, 0x30	; 48
 306:	49 2e       	mov	r4, r25
 308:	51 2c       	mov	r5, r1
 30a:	61 2c       	mov	r6, r1
 30c:	71 2c       	mov	r7, r1
 30e:	81 2c       	mov	r8, r1
 310:	91 2c       	mov	r9, r1
 312:	21 2c       	mov	r2, r1
 314:	31 2c       	mov	r3, r1
 316:	1b 86       	std	Y+11, r1	; 0x0b
 318:	81 e0       	ldi	r24, 0x01	; 1
 31a:	90 e0       	ldi	r25, 0x00	; 0
 31c:	8c 0f       	add	r24, r28
 31e:	9d 1f       	adc	r25, r29
 320:	eb 85       	ldd	r30, Y+11	; 0x0b
 322:	8e 0f       	add	r24, r30
 324:	91 1d       	adc	r25, r1
 326:	9d 87       	std	Y+13, r25	; 0x0d
 328:	8c 87       	std	Y+12, r24	; 0x0c
 32a:	8a e0       	ldi	r24, 0x0A	; 10
 32c:	a8 2e       	mov	r10, r24
 32e:	b1 2c       	mov	r11, r1
 330:	c1 2c       	mov	r12, r1
 332:	d1 2c       	mov	r13, r1
 334:	e1 2c       	mov	r14, r1
 336:	f1 2c       	mov	r15, r1
 338:	00 e0       	ldi	r16, 0x00	; 0
 33a:	10 e0       	ldi	r17, 0x00	; 0
 33c:	92 01       	movw	r18, r4
 33e:	a3 01       	movw	r20, r6
 340:	b4 01       	movw	r22, r8
 342:	c1 01       	movw	r24, r2
 344:	0e 94 b9 03 	call	0x772	; 0x772 <__moddi3>
 348:	20 5d       	subi	r18, 0xD0	; 208
 34a:	ec 85       	ldd	r30, Y+12	; 0x0c
 34c:	fd 85       	ldd	r31, Y+13	; 0x0d
 34e:	20 83       	st	Z, r18
 350:	92 01       	movw	r18, r4
 352:	a3 01       	movw	r20, r6
 354:	b4 01       	movw	r22, r8
 356:	c1 01       	movw	r24, r2
 358:	0e 94 bb 03 	call	0x776	; 0x776 <__divdi3>
 35c:	29 01       	movw	r4, r18
 35e:	3a 01       	movw	r6, r20
 360:	4b 01       	movw	r8, r22
 362:	1c 01       	movw	r2, r24
 364:	fb 85       	ldd	r31, Y+11	; 0x0b
 366:	ff 5f       	subi	r31, 0xFF	; 255
 368:	fb 87       	std	Y+11, r31	; 0x0b
 36a:	a0 e0       	ldi	r26, 0x00	; 0
 36c:	0e 94 9c 04 	call	0x938	; 0x938 <__cmpdi2_s8>
 370:	99 f6       	brne	.-90     	; 0x318 <LCD_WriteNum+0x7a>
 372:	9b 85       	ldd	r25, Y+11	; 0x0b
 374:	99 23       	and	r25, r25
 376:	59 f0       	breq	.+22     	; 0x38e <LCD_WriteNum+0xf0>
 378:	fe 01       	movw	r30, r28
 37a:	2b 85       	ldd	r18, Y+11	; 0x0b
 37c:	e2 0f       	add	r30, r18
 37e:	f1 1d       	adc	r31, r1
 380:	80 81       	ld	r24, Z
 382:	0e 94 a5 00 	call	0x14a	; 0x14a <LCD_SendData>
 386:	8b 85       	ldd	r24, Y+11	; 0x0b
 388:	81 50       	subi	r24, 0x01	; 1
 38a:	8b 87       	std	Y+11, r24	; 0x0b
 38c:	f2 cf       	rjmp	.-28     	; 0x372 <LCD_WriteNum+0xd4>
 38e:	2d 96       	adiw	r28, 0x0d	; 13
 390:	0f b6       	in	r0, 0x3f	; 63
 392:	f8 94       	cli
 394:	de bf       	out	0x3e, r29	; 62
 396:	0f be       	out	0x3f, r0	; 63
 398:	cd bf       	out	0x3d, r28	; 61
 39a:	df 91       	pop	r29
 39c:	cf 91       	pop	r28
 39e:	1f 91       	pop	r17
 3a0:	0f 91       	pop	r16
 3a2:	ff 90       	pop	r15
 3a4:	ef 90       	pop	r14
 3a6:	df 90       	pop	r13
 3a8:	cf 90       	pop	r12
 3aa:	bf 90       	pop	r11
 3ac:	af 90       	pop	r10
 3ae:	9f 90       	pop	r9
 3b0:	8f 90       	pop	r8
 3b2:	7f 90       	pop	r7
 3b4:	6f 90       	pop	r6
 3b6:	5f 90       	pop	r5
 3b8:	4f 90       	pop	r4
 3ba:	3f 90       	pop	r3
 3bc:	2f 90       	pop	r2
 3be:	08 95       	ret

000003c0 <LCD_Create_Char>:
 3c0:	0f 93       	push	r16
 3c2:	1f 93       	push	r17
 3c4:	cf 93       	push	r28
 3c6:	df 93       	push	r29
 3c8:	8c 01       	movw	r16, r24
 3ca:	86 2f       	mov	r24, r22
 3cc:	88 0f       	add	r24, r24
 3ce:	88 0f       	add	r24, r24
 3d0:	88 0f       	add	r24, r24
 3d2:	80 5c       	subi	r24, 0xC0	; 192
 3d4:	0e 94 41 00 	call	0x82	; 0x82 <LCD_SendCommand>
 3d8:	e8 01       	movw	r28, r16
 3da:	08 5f       	subi	r16, 0xF8	; 248
 3dc:	1f 4f       	sbci	r17, 0xFF	; 255
 3de:	89 91       	ld	r24, Y+
 3e0:	0e 94 a5 00 	call	0x14a	; 0x14a <LCD_SendData>
 3e4:	c0 17       	cp	r28, r16
 3e6:	d1 07       	cpc	r29, r17
 3e8:	d1 f7       	brne	.-12     	; 0x3de <LCD_Create_Char+0x1e>
 3ea:	80 e8       	ldi	r24, 0x80	; 128
 3ec:	df 91       	pop	r29
 3ee:	cf 91       	pop	r28
 3f0:	1f 91       	pop	r17
 3f2:	0f 91       	pop	r16
 3f4:	0c 94 41 00 	jmp	0x82	; 0x82 <LCD_SendCommand>

000003f8 <main>:
 3f8:	0e 94 a6 03 	call	0x74c	; 0x74c <DIO_Init>
 3fc:	0e 94 05 01 	call	0x20a	; 0x20a <LCD_Init>
 400:	60 e0       	ldi	r22, 0x00	; 0
 402:	88 e6       	ldi	r24, 0x68	; 104
 404:	90 e0       	ldi	r25, 0x00	; 0
 406:	0e 94 e0 01 	call	0x3c0	; 0x3c0 <LCD_Create_Char>
 40a:	61 e0       	ldi	r22, 0x01	; 1
 40c:	80 e6       	ldi	r24, 0x60	; 96
 40e:	90 e0       	ldi	r25, 0x00	; 0
 410:	0e 94 e0 01 	call	0x3c0	; 0x3c0 <LCD_Create_Char>
 414:	40 e7       	ldi	r20, 0x70	; 112
 416:	50 e0       	ldi	r21, 0x00	; 0
 418:	60 e0       	ldi	r22, 0x00	; 0
 41a:	80 e0       	ldi	r24, 0x00	; 0
 41c:	0e 94 45 01 	call	0x28a	; 0x28a <LCD_WriteStringRowCol>
 420:	47 e7       	ldi	r20, 0x77	; 119
 422:	50 e0       	ldi	r21, 0x00	; 0
 424:	60 e0       	ldi	r22, 0x00	; 0
 426:	82 e0       	ldi	r24, 0x02	; 2
 428:	0e 94 45 01 	call	0x28a	; 0x28a <LCD_WriteStringRowCol>
 42c:	c1 e4       	ldi	r28, 0x41	; 65
 42e:	e1 2c       	mov	r14, r1
 430:	f1 2c       	mov	r15, r1
 432:	00 e0       	ldi	r16, 0x00	; 0
 434:	10 e0       	ldi	r17, 0x00	; 0
 436:	d0 e0       	ldi	r29, 0x00	; 0
 438:	c1 2c       	mov	r12, r1
 43a:	d1 2c       	mov	r13, r1
 43c:	68 e0       	ldi	r22, 0x08	; 8
 43e:	80 e0       	ldi	r24, 0x00	; 0
 440:	0e 94 33 01 	call	0x266	; 0x266 <LCD_GoTo>
 444:	8c 2f       	mov	r24, r28
 446:	0e 94 1e 01 	call	0x23c	; 0x23c <LCD_WriteChar>
 44a:	68 e0       	ldi	r22, 0x08	; 8
 44c:	82 e0       	ldi	r24, 0x02	; 2
 44e:	0e 94 33 01 	call	0x266	; 0x266 <LCD_GoTo>
 452:	2c 2f       	mov	r18, r28
 454:	3e 2d       	mov	r19, r14
 456:	4f 2d       	mov	r20, r15
 458:	50 2f       	mov	r21, r16
 45a:	61 2f       	mov	r22, r17
 45c:	7d 2f       	mov	r23, r29
 45e:	c6 01       	movw	r24, r12
 460:	0e 94 4f 01 	call	0x29e	; 0x29e <LCD_WriteNum>
 464:	2f ef       	ldi	r18, 0xFF	; 255
 466:	82 e5       	ldi	r24, 0x52	; 82
 468:	97 e0       	ldi	r25, 0x07	; 7
 46a:	21 50       	subi	r18, 0x01	; 1
 46c:	80 40       	sbci	r24, 0x00	; 0
 46e:	90 40       	sbci	r25, 0x00	; 0
 470:	e1 f7       	brne	.-8      	; 0x46a <__LOCK_REGION_LENGTH__+0x6a>
 472:	00 c0       	rjmp	.+0      	; 0x474 <__LOCK_REGION_LENGTH__+0x74>
 474:	00 00       	nop
 476:	2c 2f       	mov	r18, r28
 478:	3e 2d       	mov	r19, r14
 47a:	4f 2d       	mov	r20, r15
 47c:	50 2f       	mov	r21, r16
 47e:	61 2f       	mov	r22, r17
 480:	7d 2f       	mov	r23, r29
 482:	c6 01       	movw	r24, r12
 484:	a1 e0       	ldi	r26, 0x01	; 1
 486:	0e 94 90 04 	call	0x920	; 0x920 <__adddi3_s8>
 48a:	c2 2f       	mov	r28, r18
 48c:	e3 2e       	mov	r14, r19
 48e:	f4 2e       	mov	r15, r20
 490:	05 2f       	mov	r16, r21
 492:	16 2f       	mov	r17, r22
 494:	d7 2f       	mov	r29, r23
 496:	6c 01       	movw	r12, r24
 498:	ab e5       	ldi	r26, 0x5B	; 91
 49a:	0e 94 9c 04 	call	0x938	; 0x938 <__cmpdi2_s8>
 49e:	71 f6       	brne	.-100    	; 0x43c <__LOCK_REGION_LENGTH__+0x3c>
 4a0:	c5 cf       	rjmp	.-118    	; 0x42c <__LOCK_REGION_LENGTH__+0x2c>

000004a2 <DIO_InitPin>:
 4a2:	98 2f       	mov	r25, r24
 4a4:	97 70       	andi	r25, 0x07	; 7
 4a6:	86 95       	lsr	r24
 4a8:	86 95       	lsr	r24
 4aa:	86 95       	lsr	r24
 4ac:	61 30       	cpi	r22, 0x01	; 1
 4ae:	e9 f1       	breq	.+122    	; 0x52a <DIO_InitPin+0x88>
 4b0:	20 f0       	brcs	.+8      	; 0x4ba <DIO_InitPin+0x18>
 4b2:	62 30       	cpi	r22, 0x02	; 2
 4b4:	09 f4       	brne	.+2      	; 0x4b8 <DIO_InitPin+0x16>
 4b6:	79 c0       	rjmp	.+242    	; 0x5aa <DIO_InitPin+0x108>
 4b8:	08 95       	ret
 4ba:	81 30       	cpi	r24, 0x01	; 1
 4bc:	91 f0       	breq	.+36     	; 0x4e2 <DIO_InitPin+0x40>
 4be:	28 f0       	brcs	.+10     	; 0x4ca <DIO_InitPin+0x28>
 4c0:	82 30       	cpi	r24, 0x02	; 2
 4c2:	d9 f0       	breq	.+54     	; 0x4fa <DIO_InitPin+0x58>
 4c4:	83 30       	cpi	r24, 0x03	; 3
 4c6:	29 f1       	breq	.+74     	; 0x512 <DIO_InitPin+0x70>
 4c8:	08 95       	ret
 4ca:	4a b3       	in	r20, 0x1a	; 26
 4cc:	21 e0       	ldi	r18, 0x01	; 1
 4ce:	30 e0       	ldi	r19, 0x00	; 0
 4d0:	b9 01       	movw	r22, r18
 4d2:	02 c0       	rjmp	.+4      	; 0x4d8 <DIO_InitPin+0x36>
 4d4:	66 0f       	add	r22, r22
 4d6:	77 1f       	adc	r23, r23
 4d8:	9a 95       	dec	r25
 4da:	e2 f7       	brpl	.-8      	; 0x4d4 <DIO_InitPin+0x32>
 4dc:	cb 01       	movw	r24, r22
 4de:	84 2b       	or	r24, r20
 4e0:	38 c0       	rjmp	.+112    	; 0x552 <DIO_InitPin+0xb0>
 4e2:	47 b3       	in	r20, 0x17	; 23
 4e4:	21 e0       	ldi	r18, 0x01	; 1
 4e6:	30 e0       	ldi	r19, 0x00	; 0
 4e8:	b9 01       	movw	r22, r18
 4ea:	02 c0       	rjmp	.+4      	; 0x4f0 <DIO_InitPin+0x4e>
 4ec:	66 0f       	add	r22, r22
 4ee:	77 1f       	adc	r23, r23
 4f0:	9a 95       	dec	r25
 4f2:	e2 f7       	brpl	.-8      	; 0x4ec <DIO_InitPin+0x4a>
 4f4:	cb 01       	movw	r24, r22
 4f6:	84 2b       	or	r24, r20
 4f8:	3a c0       	rjmp	.+116    	; 0x56e <DIO_InitPin+0xcc>
 4fa:	44 b3       	in	r20, 0x14	; 20
 4fc:	21 e0       	ldi	r18, 0x01	; 1
 4fe:	30 e0       	ldi	r19, 0x00	; 0
 500:	b9 01       	movw	r22, r18
 502:	02 c0       	rjmp	.+4      	; 0x508 <DIO_InitPin+0x66>
 504:	66 0f       	add	r22, r22
 506:	77 1f       	adc	r23, r23
 508:	9a 95       	dec	r25
 50a:	e2 f7       	brpl	.-8      	; 0x504 <DIO_InitPin+0x62>
 50c:	cb 01       	movw	r24, r22
 50e:	84 2b       	or	r24, r20
 510:	3c c0       	rjmp	.+120    	; 0x58a <DIO_InitPin+0xe8>
 512:	41 b3       	in	r20, 0x11	; 17
 514:	21 e0       	ldi	r18, 0x01	; 1
 516:	30 e0       	ldi	r19, 0x00	; 0
 518:	b9 01       	movw	r22, r18
 51a:	02 c0       	rjmp	.+4      	; 0x520 <DIO_InitPin+0x7e>
 51c:	66 0f       	add	r22, r22
 51e:	77 1f       	adc	r23, r23
 520:	9a 95       	dec	r25
 522:	e2 f7       	brpl	.-8      	; 0x51c <DIO_InitPin+0x7a>
 524:	cb 01       	movw	r24, r22
 526:	84 2b       	or	r24, r20
 528:	3e c0       	rjmp	.+124    	; 0x5a6 <DIO_InitPin+0x104>
 52a:	81 30       	cpi	r24, 0x01	; 1
 52c:	a1 f0       	breq	.+40     	; 0x556 <DIO_InitPin+0xb4>
 52e:	28 f0       	brcs	.+10     	; 0x53a <DIO_InitPin+0x98>
 530:	82 30       	cpi	r24, 0x02	; 2
 532:	f9 f0       	breq	.+62     	; 0x572 <DIO_InitPin+0xd0>
 534:	83 30       	cpi	r24, 0x03	; 3
 536:	59 f1       	breq	.+86     	; 0x58e <DIO_InitPin+0xec>
 538:	08 95       	ret
 53a:	4a b3       	in	r20, 0x1a	; 26
 53c:	21 e0       	ldi	r18, 0x01	; 1
 53e:	30 e0       	ldi	r19, 0x00	; 0
 540:	b9 01       	movw	r22, r18
 542:	02 c0       	rjmp	.+4      	; 0x548 <DIO_InitPin+0xa6>
 544:	66 0f       	add	r22, r22
 546:	77 1f       	adc	r23, r23
 548:	9a 95       	dec	r25
 54a:	e2 f7       	brpl	.-8      	; 0x544 <DIO_InitPin+0xa2>
 54c:	cb 01       	movw	r24, r22
 54e:	80 95       	com	r24
 550:	84 23       	and	r24, r20
 552:	8a bb       	out	0x1a, r24	; 26
 554:	08 95       	ret
 556:	47 b3       	in	r20, 0x17	; 23
 558:	21 e0       	ldi	r18, 0x01	; 1
 55a:	30 e0       	ldi	r19, 0x00	; 0
 55c:	b9 01       	movw	r22, r18
 55e:	02 c0       	rjmp	.+4      	; 0x564 <DIO_InitPin+0xc2>
 560:	66 0f       	add	r22, r22
 562:	77 1f       	adc	r23, r23
 564:	9a 95       	dec	r25
 566:	e2 f7       	brpl	.-8      	; 0x560 <DIO_InitPin+0xbe>
 568:	cb 01       	movw	r24, r22
 56a:	80 95       	com	r24
 56c:	84 23       	and	r24, r20
 56e:	87 bb       	out	0x17, r24	; 23
 570:	08 95       	ret
 572:	44 b3       	in	r20, 0x14	; 20
 574:	21 e0       	ldi	r18, 0x01	; 1
 576:	30 e0       	ldi	r19, 0x00	; 0
 578:	b9 01       	movw	r22, r18
 57a:	02 c0       	rjmp	.+4      	; 0x580 <DIO_InitPin+0xde>
 57c:	66 0f       	add	r22, r22
 57e:	77 1f       	adc	r23, r23
 580:	9a 95       	dec	r25
 582:	e2 f7       	brpl	.-8      	; 0x57c <DIO_InitPin+0xda>
 584:	cb 01       	movw	r24, r22
 586:	80 95       	com	r24
 588:	84 23       	and	r24, r20
 58a:	84 bb       	out	0x14, r24	; 20
 58c:	08 95       	ret
 58e:	41 b3       	in	r20, 0x11	; 17
 590:	21 e0       	ldi	r18, 0x01	; 1
 592:	30 e0       	ldi	r19, 0x00	; 0
 594:	b9 01       	movw	r22, r18
 596:	02 c0       	rjmp	.+4      	; 0x59c <DIO_InitPin+0xfa>
 598:	66 0f       	add	r22, r22
 59a:	77 1f       	adc	r23, r23
 59c:	9a 95       	dec	r25
 59e:	e2 f7       	brpl	.-8      	; 0x598 <DIO_InitPin+0xf6>
 5a0:	cb 01       	movw	r24, r22
 5a2:	80 95       	com	r24
 5a4:	84 23       	and	r24, r20
 5a6:	81 bb       	out	0x11, r24	; 17
 5a8:	08 95       	ret
 5aa:	81 30       	cpi	r24, 0x01	; 1
 5ac:	c1 f0       	breq	.+48     	; 0x5de <DIO_InitPin+0x13c>
 5ae:	28 f0       	brcs	.+10     	; 0x5ba <DIO_InitPin+0x118>
 5b0:	82 30       	cpi	r24, 0x02	; 2
 5b2:	39 f1       	breq	.+78     	; 0x602 <DIO_InitPin+0x160>
 5b4:	83 30       	cpi	r24, 0x03	; 3
 5b6:	b9 f1       	breq	.+110    	; 0x626 <DIO_InitPin+0x184>
 5b8:	08 95       	ret
 5ba:	4a b3       	in	r20, 0x1a	; 26
 5bc:	21 e0       	ldi	r18, 0x01	; 1
 5be:	30 e0       	ldi	r19, 0x00	; 0
 5c0:	b9 01       	movw	r22, r18
 5c2:	02 c0       	rjmp	.+4      	; 0x5c8 <DIO_InitPin+0x126>
 5c4:	66 0f       	add	r22, r22
 5c6:	77 1f       	adc	r23, r23
 5c8:	9a 95       	dec	r25
 5ca:	e2 f7       	brpl	.-8      	; 0x5c4 <DIO_InitPin+0x122>
 5cc:	cb 01       	movw	r24, r22
 5ce:	96 2f       	mov	r25, r22
 5d0:	90 95       	com	r25
 5d2:	94 23       	and	r25, r20
 5d4:	9a bb       	out	0x1a, r25	; 26
 5d6:	9b b3       	in	r25, 0x1b	; 27
 5d8:	89 2b       	or	r24, r25
 5da:	8b bb       	out	0x1b, r24	; 27
 5dc:	08 95       	ret
 5de:	47 b3       	in	r20, 0x17	; 23
 5e0:	21 e0       	ldi	r18, 0x01	; 1
 5e2:	30 e0       	ldi	r19, 0x00	; 0
 5e4:	b9 01       	movw	r22, r18
 5e6:	02 c0       	rjmp	.+4      	; 0x5ec <DIO_InitPin+0x14a>
 5e8:	66 0f       	add	r22, r22
 5ea:	77 1f       	adc	r23, r23
 5ec:	9a 95       	dec	r25
 5ee:	e2 f7       	brpl	.-8      	; 0x5e8 <DIO_InitPin+0x146>
 5f0:	cb 01       	movw	r24, r22
 5f2:	96 2f       	mov	r25, r22
 5f4:	90 95       	com	r25
 5f6:	94 23       	and	r25, r20
 5f8:	97 bb       	out	0x17, r25	; 23
 5fa:	98 b3       	in	r25, 0x18	; 24
 5fc:	89 2b       	or	r24, r25
 5fe:	88 bb       	out	0x18, r24	; 24
 600:	08 95       	ret
 602:	44 b3       	in	r20, 0x14	; 20
 604:	21 e0       	ldi	r18, 0x01	; 1
 606:	30 e0       	ldi	r19, 0x00	; 0
 608:	b9 01       	movw	r22, r18
 60a:	02 c0       	rjmp	.+4      	; 0x610 <DIO_InitPin+0x16e>
 60c:	66 0f       	add	r22, r22
 60e:	77 1f       	adc	r23, r23
 610:	9a 95       	dec	r25
 612:	e2 f7       	brpl	.-8      	; 0x60c <DIO_InitPin+0x16a>
 614:	cb 01       	movw	r24, r22
 616:	96 2f       	mov	r25, r22
 618:	90 95       	com	r25
 61a:	94 23       	and	r25, r20
 61c:	94 bb       	out	0x14, r25	; 20
 61e:	95 b3       	in	r25, 0x15	; 21
 620:	89 2b       	or	r24, r25
 622:	85 bb       	out	0x15, r24	; 21
 624:	08 95       	ret
 626:	41 b3       	in	r20, 0x11	; 17
 628:	21 e0       	ldi	r18, 0x01	; 1
 62a:	30 e0       	ldi	r19, 0x00	; 0
 62c:	b9 01       	movw	r22, r18
 62e:	02 c0       	rjmp	.+4      	; 0x634 <DIO_InitPin+0x192>
 630:	66 0f       	add	r22, r22
 632:	77 1f       	adc	r23, r23
 634:	9a 95       	dec	r25
 636:	e2 f7       	brpl	.-8      	; 0x630 <DIO_InitPin+0x18e>
 638:	cb 01       	movw	r24, r22
 63a:	96 2f       	mov	r25, r22
 63c:	90 95       	com	r25
 63e:	94 23       	and	r25, r20
 640:	91 bb       	out	0x11, r25	; 17
 642:	92 b3       	in	r25, 0x12	; 18
 644:	89 2b       	or	r24, r25
 646:	82 bb       	out	0x12, r24	; 18
 648:	08 95       	ret

0000064a <DIO_WritePin>:
 64a:	98 2f       	mov	r25, r24
 64c:	97 70       	andi	r25, 0x07	; 7
 64e:	86 95       	lsr	r24
 650:	86 95       	lsr	r24
 652:	86 95       	lsr	r24
 654:	61 30       	cpi	r22, 0x01	; 1
 656:	c1 f5       	brne	.+112    	; 0x6c8 <DIO_WritePin+0x7e>
 658:	81 30       	cpi	r24, 0x01	; 1
 65a:	91 f0       	breq	.+36     	; 0x680 <DIO_WritePin+0x36>
 65c:	28 f0       	brcs	.+10     	; 0x668 <DIO_WritePin+0x1e>
 65e:	82 30       	cpi	r24, 0x02	; 2
 660:	d9 f0       	breq	.+54     	; 0x698 <DIO_WritePin+0x4e>
 662:	83 30       	cpi	r24, 0x03	; 3
 664:	29 f1       	breq	.+74     	; 0x6b0 <DIO_WritePin+0x66>
 666:	08 95       	ret
 668:	4b b3       	in	r20, 0x1b	; 27
 66a:	21 e0       	ldi	r18, 0x01	; 1
 66c:	30 e0       	ldi	r19, 0x00	; 0
 66e:	b9 01       	movw	r22, r18
 670:	02 c0       	rjmp	.+4      	; 0x676 <DIO_WritePin+0x2c>
 672:	66 0f       	add	r22, r22
 674:	77 1f       	adc	r23, r23
 676:	9a 95       	dec	r25
 678:	e2 f7       	brpl	.-8      	; 0x672 <DIO_WritePin+0x28>
 67a:	cb 01       	movw	r24, r22
 67c:	84 2b       	or	r24, r20
 67e:	3a c0       	rjmp	.+116    	; 0x6f4 <DIO_WritePin+0xaa>
 680:	48 b3       	in	r20, 0x18	; 24
 682:	21 e0       	ldi	r18, 0x01	; 1
 684:	30 e0       	ldi	r19, 0x00	; 0
 686:	b9 01       	movw	r22, r18
 688:	02 c0       	rjmp	.+4      	; 0x68e <DIO_WritePin+0x44>
 68a:	66 0f       	add	r22, r22
 68c:	77 1f       	adc	r23, r23
 68e:	9a 95       	dec	r25
 690:	e2 f7       	brpl	.-8      	; 0x68a <DIO_WritePin+0x40>
 692:	cb 01       	movw	r24, r22
 694:	84 2b       	or	r24, r20
 696:	3c c0       	rjmp	.+120    	; 0x710 <DIO_WritePin+0xc6>
 698:	45 b3       	in	r20, 0x15	; 21
 69a:	21 e0       	ldi	r18, 0x01	; 1
 69c:	30 e0       	ldi	r19, 0x00	; 0
 69e:	b9 01       	movw	r22, r18
 6a0:	02 c0       	rjmp	.+4      	; 0x6a6 <DIO_WritePin+0x5c>
 6a2:	66 0f       	add	r22, r22
 6a4:	77 1f       	adc	r23, r23
 6a6:	9a 95       	dec	r25
 6a8:	e2 f7       	brpl	.-8      	; 0x6a2 <DIO_WritePin+0x58>
 6aa:	cb 01       	movw	r24, r22
 6ac:	84 2b       	or	r24, r20
 6ae:	3e c0       	rjmp	.+124    	; 0x72c <DIO_WritePin+0xe2>
 6b0:	42 b3       	in	r20, 0x12	; 18
 6b2:	21 e0       	ldi	r18, 0x01	; 1
 6b4:	30 e0       	ldi	r19, 0x00	; 0
 6b6:	b9 01       	movw	r22, r18
 6b8:	02 c0       	rjmp	.+4      	; 0x6be <DIO_WritePin+0x74>
 6ba:	66 0f       	add	r22, r22
 6bc:	77 1f       	adc	r23, r23
 6be:	9a 95       	dec	r25
 6c0:	e2 f7       	brpl	.-8      	; 0x6ba <DIO_WritePin+0x70>
 6c2:	cb 01       	movw	r24, r22
 6c4:	84 2b       	or	r24, r20
 6c6:	40 c0       	rjmp	.+128    	; 0x748 <DIO_WritePin+0xfe>
 6c8:	61 11       	cpse	r22, r1
 6ca:	3f c0       	rjmp	.+126    	; 0x74a <DIO_WritePin+0x100>
 6cc:	81 30       	cpi	r24, 0x01	; 1
 6ce:	a1 f0       	breq	.+40     	; 0x6f8 <DIO_WritePin+0xae>
 6d0:	28 f0       	brcs	.+10     	; 0x6dc <DIO_WritePin+0x92>
 6d2:	82 30       	cpi	r24, 0x02	; 2
 6d4:	f9 f0       	breq	.+62     	; 0x714 <DIO_WritePin+0xca>
 6d6:	83 30       	cpi	r24, 0x03	; 3
 6d8:	59 f1       	breq	.+86     	; 0x730 <DIO_WritePin+0xe6>
 6da:	08 95       	ret
 6dc:	4b b3       	in	r20, 0x1b	; 27
 6de:	21 e0       	ldi	r18, 0x01	; 1
 6e0:	30 e0       	ldi	r19, 0x00	; 0
 6e2:	b9 01       	movw	r22, r18
 6e4:	02 c0       	rjmp	.+4      	; 0x6ea <DIO_WritePin+0xa0>
 6e6:	66 0f       	add	r22, r22
 6e8:	77 1f       	adc	r23, r23
 6ea:	9a 95       	dec	r25
 6ec:	e2 f7       	brpl	.-8      	; 0x6e6 <DIO_WritePin+0x9c>
 6ee:	cb 01       	movw	r24, r22
 6f0:	80 95       	com	r24
 6f2:	84 23       	and	r24, r20
 6f4:	8b bb       	out	0x1b, r24	; 27
 6f6:	08 95       	ret
 6f8:	48 b3       	in	r20, 0x18	; 24
 6fa:	21 e0       	ldi	r18, 0x01	; 1
 6fc:	30 e0       	ldi	r19, 0x00	; 0
 6fe:	b9 01       	movw	r22, r18
 700:	02 c0       	rjmp	.+4      	; 0x706 <DIO_WritePin+0xbc>
 702:	66 0f       	add	r22, r22
 704:	77 1f       	adc	r23, r23
 706:	9a 95       	dec	r25
 708:	e2 f7       	brpl	.-8      	; 0x702 <DIO_WritePin+0xb8>
 70a:	cb 01       	movw	r24, r22
 70c:	80 95       	com	r24
 70e:	84 23       	and	r24, r20
 710:	88 bb       	out	0x18, r24	; 24
 712:	08 95       	ret
 714:	45 b3       	in	r20, 0x15	; 21
 716:	21 e0       	ldi	r18, 0x01	; 1
 718:	30 e0       	ldi	r19, 0x00	; 0
 71a:	b9 01       	movw	r22, r18
 71c:	02 c0       	rjmp	.+4      	; 0x722 <DIO_WritePin+0xd8>
 71e:	66 0f       	add	r22, r22
 720:	77 1f       	adc	r23, r23
 722:	9a 95       	dec	r25
 724:	e2 f7       	brpl	.-8      	; 0x71e <DIO_WritePin+0xd4>
 726:	cb 01       	movw	r24, r22
 728:	80 95       	com	r24
 72a:	84 23       	and	r24, r20
 72c:	85 bb       	out	0x15, r24	; 21
 72e:	08 95       	ret
 730:	42 b3       	in	r20, 0x12	; 18
 732:	21 e0       	ldi	r18, 0x01	; 1
 734:	30 e0       	ldi	r19, 0x00	; 0
 736:	b9 01       	movw	r22, r18
 738:	02 c0       	rjmp	.+4      	; 0x73e <DIO_WritePin+0xf4>
 73a:	66 0f       	add	r22, r22
 73c:	77 1f       	adc	r23, r23
 73e:	9a 95       	dec	r25
 740:	e2 f7       	brpl	.-8      	; 0x73a <DIO_WritePin+0xf0>
 742:	cb 01       	movw	r24, r22
 744:	80 95       	com	r24
 746:	84 23       	and	r24, r20
 748:	82 bb       	out	0x12, r24	; 18
 74a:	08 95       	ret

0000074c <DIO_Init>:
 74c:	0f 93       	push	r16
 74e:	1f 93       	push	r17
 750:	cf 93       	push	r28
 752:	0e e7       	ldi	r16, 0x7E	; 126
 754:	10 e0       	ldi	r17, 0x00	; 0
 756:	c0 e0       	ldi	r28, 0x00	; 0
 758:	f8 01       	movw	r30, r16
 75a:	61 91       	ld	r22, Z+
 75c:	8f 01       	movw	r16, r30
 75e:	8c 2f       	mov	r24, r28
 760:	0e 94 51 02 	call	0x4a2	; 0x4a2 <DIO_InitPin>
 764:	cf 5f       	subi	r28, 0xFF	; 255
 766:	c0 32       	cpi	r28, 0x20	; 32
 768:	b9 f7       	brne	.-18     	; 0x758 <DIO_Init+0xc>
 76a:	cf 91       	pop	r28
 76c:	1f 91       	pop	r17
 76e:	0f 91       	pop	r16
 770:	08 95       	ret

00000772 <__moddi3>:
 772:	68 94       	set
 774:	01 c0       	rjmp	.+2      	; 0x778 <__divdi3_moddi3>

00000776 <__divdi3>:
 776:	e8 94       	clt

00000778 <__divdi3_moddi3>:
 778:	f9 2f       	mov	r31, r25
 77a:	f1 2b       	or	r31, r17
 77c:	12 f0       	brmi	.+4      	; 0x782 <__divdi3_moddi3+0xa>
 77e:	0c 94 ed 03 	jmp	0x7da	; 0x7da <__udivdi3_umoddi3>
 782:	a0 e0       	ldi	r26, 0x00	; 0
 784:	b0 e0       	ldi	r27, 0x00	; 0
 786:	e7 ec       	ldi	r30, 0xC7	; 199
 788:	f3 e0       	ldi	r31, 0x03	; 3
 78a:	0c 94 5f 04 	jmp	0x8be	; 0x8be <__prologue_saves__+0xc>
 78e:	09 2e       	mov	r0, r25
 790:	05 94       	asr	r0
 792:	22 f4       	brpl	.+8      	; 0x79c <__divdi3_moddi3+0x24>
 794:	0e 94 49 04 	call	0x892	; 0x892 <__negdi2>
 798:	11 23       	and	r17, r17
 79a:	92 f4       	brpl	.+36     	; 0x7c0 <__divdi3_moddi3+0x48>
 79c:	f0 e8       	ldi	r31, 0x80	; 128
 79e:	0f 26       	eor	r0, r31
 7a0:	ff ef       	ldi	r31, 0xFF	; 255
 7a2:	e0 94       	com	r14
 7a4:	f0 94       	com	r15
 7a6:	00 95       	com	r16
 7a8:	10 95       	com	r17
 7aa:	b0 94       	com	r11
 7ac:	c0 94       	com	r12
 7ae:	d0 94       	com	r13
 7b0:	a1 94       	neg	r10
 7b2:	bf 0a       	sbc	r11, r31
 7b4:	cf 0a       	sbc	r12, r31
 7b6:	df 0a       	sbc	r13, r31
 7b8:	ef 0a       	sbc	r14, r31
 7ba:	ff 0a       	sbc	r15, r31
 7bc:	0f 0b       	sbc	r16, r31
 7be:	1f 0b       	sbc	r17, r31
 7c0:	0e 94 f8 03 	call	0x7f0	; 0x7f0 <__udivmod64>
 7c4:	07 fc       	sbrc	r0, 7
 7c6:	0e 94 49 04 	call	0x892	; 0x892 <__negdi2>
 7ca:	cd b7       	in	r28, 0x3d	; 61
 7cc:	de b7       	in	r29, 0x3e	; 62
 7ce:	ec e0       	ldi	r30, 0x0C	; 12
 7d0:	0c 94 7b 04 	jmp	0x8f6	; 0x8f6 <__epilogue_restores__+0xc>

000007d4 <__umoddi3>:
 7d4:	68 94       	set
 7d6:	01 c0       	rjmp	.+2      	; 0x7da <__udivdi3_umoddi3>

000007d8 <__udivdi3>:
 7d8:	e8 94       	clt

000007da <__udivdi3_umoddi3>:
 7da:	8f 92       	push	r8
 7dc:	9f 92       	push	r9
 7de:	cf 93       	push	r28
 7e0:	df 93       	push	r29
 7e2:	0e 94 f8 03 	call	0x7f0	; 0x7f0 <__udivmod64>
 7e6:	df 91       	pop	r29
 7e8:	cf 91       	pop	r28
 7ea:	9f 90       	pop	r9
 7ec:	8f 90       	pop	r8
 7ee:	08 95       	ret

000007f0 <__udivmod64>:
 7f0:	88 24       	eor	r8, r8
 7f2:	99 24       	eor	r9, r9
 7f4:	f4 01       	movw	r30, r8
 7f6:	e4 01       	movw	r28, r8
 7f8:	b0 e4       	ldi	r27, 0x40	; 64
 7fa:	9f 93       	push	r25
 7fc:	aa 27       	eor	r26, r26
 7fe:	9a 15       	cp	r25, r10
 800:	8b 04       	cpc	r8, r11
 802:	9c 04       	cpc	r9, r12
 804:	ed 05       	cpc	r30, r13
 806:	fe 05       	cpc	r31, r14
 808:	cf 05       	cpc	r28, r15
 80a:	d0 07       	cpc	r29, r16
 80c:	a1 07       	cpc	r26, r17
 80e:	98 f4       	brcc	.+38     	; 0x836 <__udivmod64+0x46>
 810:	ad 2f       	mov	r26, r29
 812:	dc 2f       	mov	r29, r28
 814:	cf 2f       	mov	r28, r31
 816:	fe 2f       	mov	r31, r30
 818:	e9 2d       	mov	r30, r9
 81a:	98 2c       	mov	r9, r8
 81c:	89 2e       	mov	r8, r25
 81e:	98 2f       	mov	r25, r24
 820:	87 2f       	mov	r24, r23
 822:	76 2f       	mov	r23, r22
 824:	65 2f       	mov	r22, r21
 826:	54 2f       	mov	r21, r20
 828:	43 2f       	mov	r20, r19
 82a:	32 2f       	mov	r19, r18
 82c:	22 27       	eor	r18, r18
 82e:	b8 50       	subi	r27, 0x08	; 8
 830:	31 f7       	brne	.-52     	; 0x7fe <__udivmod64+0xe>
 832:	bf 91       	pop	r27
 834:	27 c0       	rjmp	.+78     	; 0x884 <__stack+0x25>
 836:	1b 2e       	mov	r1, r27
 838:	bf 91       	pop	r27
 83a:	bb 27       	eor	r27, r27
 83c:	22 0f       	add	r18, r18
 83e:	33 1f       	adc	r19, r19
 840:	44 1f       	adc	r20, r20
 842:	55 1f       	adc	r21, r21
 844:	66 1f       	adc	r22, r22
 846:	77 1f       	adc	r23, r23
 848:	88 1f       	adc	r24, r24
 84a:	99 1f       	adc	r25, r25
 84c:	88 1c       	adc	r8, r8
 84e:	99 1c       	adc	r9, r9
 850:	ee 1f       	adc	r30, r30
 852:	ff 1f       	adc	r31, r31
 854:	cc 1f       	adc	r28, r28
 856:	dd 1f       	adc	r29, r29
 858:	aa 1f       	adc	r26, r26
 85a:	bb 1f       	adc	r27, r27
 85c:	8a 14       	cp	r8, r10
 85e:	9b 04       	cpc	r9, r11
 860:	ec 05       	cpc	r30, r12
 862:	fd 05       	cpc	r31, r13
 864:	ce 05       	cpc	r28, r14
 866:	df 05       	cpc	r29, r15
 868:	a0 07       	cpc	r26, r16
 86a:	b1 07       	cpc	r27, r17
 86c:	48 f0       	brcs	.+18     	; 0x880 <__stack+0x21>
 86e:	8a 18       	sub	r8, r10
 870:	9b 08       	sbc	r9, r11
 872:	ec 09       	sbc	r30, r12
 874:	fd 09       	sbc	r31, r13
 876:	ce 09       	sbc	r28, r14
 878:	df 09       	sbc	r29, r15
 87a:	a0 0b       	sbc	r26, r16
 87c:	b1 0b       	sbc	r27, r17
 87e:	21 60       	ori	r18, 0x01	; 1
 880:	1a 94       	dec	r1
 882:	e1 f6       	brne	.-72     	; 0x83c <__udivmod64+0x4c>
 884:	2e f4       	brtc	.+10     	; 0x890 <__stack+0x31>
 886:	94 01       	movw	r18, r8
 888:	af 01       	movw	r20, r30
 88a:	be 01       	movw	r22, r28
 88c:	cd 01       	movw	r24, r26
 88e:	00 0c       	add	r0, r0
 890:	08 95       	ret

00000892 <__negdi2>:
 892:	60 95       	com	r22
 894:	70 95       	com	r23
 896:	80 95       	com	r24
 898:	90 95       	com	r25
 89a:	30 95       	com	r19
 89c:	40 95       	com	r20
 89e:	50 95       	com	r21
 8a0:	21 95       	neg	r18
 8a2:	3f 4f       	sbci	r19, 0xFF	; 255
 8a4:	4f 4f       	sbci	r20, 0xFF	; 255
 8a6:	5f 4f       	sbci	r21, 0xFF	; 255
 8a8:	6f 4f       	sbci	r22, 0xFF	; 255
 8aa:	7f 4f       	sbci	r23, 0xFF	; 255
 8ac:	8f 4f       	sbci	r24, 0xFF	; 255
 8ae:	9f 4f       	sbci	r25, 0xFF	; 255
 8b0:	08 95       	ret

000008b2 <__prologue_saves__>:
 8b2:	2f 92       	push	r2
 8b4:	3f 92       	push	r3
 8b6:	4f 92       	push	r4
 8b8:	5f 92       	push	r5
 8ba:	6f 92       	push	r6
 8bc:	7f 92       	push	r7
 8be:	8f 92       	push	r8
 8c0:	9f 92       	push	r9
 8c2:	af 92       	push	r10
 8c4:	bf 92       	push	r11
 8c6:	cf 92       	push	r12
 8c8:	df 92       	push	r13
 8ca:	ef 92       	push	r14
 8cc:	ff 92       	push	r15
 8ce:	0f 93       	push	r16
 8d0:	1f 93       	push	r17
 8d2:	cf 93       	push	r28
 8d4:	df 93       	push	r29
 8d6:	cd b7       	in	r28, 0x3d	; 61
 8d8:	de b7       	in	r29, 0x3e	; 62
 8da:	ca 1b       	sub	r28, r26
 8dc:	db 0b       	sbc	r29, r27
 8de:	0f b6       	in	r0, 0x3f	; 63
 8e0:	f8 94       	cli
 8e2:	de bf       	out	0x3e, r29	; 62
 8e4:	0f be       	out	0x3f, r0	; 63
 8e6:	cd bf       	out	0x3d, r28	; 61
 8e8:	09 94       	ijmp

000008ea <__epilogue_restores__>:
 8ea:	2a 88       	ldd	r2, Y+18	; 0x12
 8ec:	39 88       	ldd	r3, Y+17	; 0x11
 8ee:	48 88       	ldd	r4, Y+16	; 0x10
 8f0:	5f 84       	ldd	r5, Y+15	; 0x0f
 8f2:	6e 84       	ldd	r6, Y+14	; 0x0e
 8f4:	7d 84       	ldd	r7, Y+13	; 0x0d
 8f6:	8c 84       	ldd	r8, Y+12	; 0x0c
 8f8:	9b 84       	ldd	r9, Y+11	; 0x0b
 8fa:	aa 84       	ldd	r10, Y+10	; 0x0a
 8fc:	b9 84       	ldd	r11, Y+9	; 0x09
 8fe:	c8 84       	ldd	r12, Y+8	; 0x08
 900:	df 80       	ldd	r13, Y+7	; 0x07
 902:	ee 80       	ldd	r14, Y+6	; 0x06
 904:	fd 80       	ldd	r15, Y+5	; 0x05
 906:	0c 81       	ldd	r16, Y+4	; 0x04
 908:	1b 81       	ldd	r17, Y+3	; 0x03
 90a:	aa 81       	ldd	r26, Y+2	; 0x02
 90c:	b9 81       	ldd	r27, Y+1	; 0x01
 90e:	ce 0f       	add	r28, r30
 910:	d1 1d       	adc	r29, r1
 912:	0f b6       	in	r0, 0x3f	; 63
 914:	f8 94       	cli
 916:	de bf       	out	0x3e, r29	; 62
 918:	0f be       	out	0x3f, r0	; 63
 91a:	cd bf       	out	0x3d, r28	; 61
 91c:	ed 01       	movw	r28, r26
 91e:	08 95       	ret

00000920 <__adddi3_s8>:
 920:	00 24       	eor	r0, r0
 922:	a7 fd       	sbrc	r26, 7
 924:	00 94       	com	r0
 926:	2a 0f       	add	r18, r26
 928:	30 1d       	adc	r19, r0
 92a:	40 1d       	adc	r20, r0
 92c:	50 1d       	adc	r21, r0
 92e:	60 1d       	adc	r22, r0
 930:	70 1d       	adc	r23, r0
 932:	80 1d       	adc	r24, r0
 934:	90 1d       	adc	r25, r0
 936:	08 95       	ret

00000938 <__cmpdi2_s8>:
 938:	00 24       	eor	r0, r0
 93a:	a7 fd       	sbrc	r26, 7
 93c:	00 94       	com	r0
 93e:	2a 17       	cp	r18, r26
 940:	30 05       	cpc	r19, r0
 942:	40 05       	cpc	r20, r0
 944:	50 05       	cpc	r21, r0
 946:	60 05       	cpc	r22, r0
 948:	70 05       	cpc	r23, r0
 94a:	80 05       	cpc	r24, r0
 94c:	90 05       	cpc	r25, r0
 94e:	08 95       	ret

00000950 <_exit>:
 950:	f8 94       	cli

00000952 <__stop_program>:
 952:	ff cf       	rjmp	.-2      	; 0x952 <__stop_program>
