
AVR_Drivers.elf:     file format elf32-avr

Sections:
Idx Name          Size      VMA       LMA       File off  Algn
  0 .text         000005b2  00000000  00000000  00000094  2**1
                  CONTENTS, ALLOC, LOAD, READONLY, CODE
  1 .data         0000002e  00800060  000005b2  00000646  2**0
                  CONTENTS, ALLOC, LOAD, DATA
  2 .bss          00000001  0080008e  0080008e  00000674  2**0
                  ALLOC
  3 .comment      00000030  00000000  00000000  00000674  2**0
                  CONTENTS, READONLY
  4 .note.gnu.avr.deviceinfo 0000003c  00000000  00000000  000006a4  2**2
                  CONTENTS, READONLY
  5 .debug_info   000004e6  00000000  00000000  000006e0  2**0
                  CONTENTS, READONLY, DEBUGGING
  6 .debug_abbrev 000004a3  00000000  00000000  00000bc6  2**0
                  CONTENTS, READONLY, DEBUGGING
  7 .debug_line   00000115  00000000  00000000  00001069  2**0
                  CONTENTS, READONLY, DEBUGGING
  8 .debug_str    00000196  00000000  00000000  0000117e  2**0
                  CONTENTS, READONLY, DEBUGGING

Disassembly of section .text:

00000000 <__vectors>:
   0:	0c 94 2a 00 	jmp	0x54	; 0x54 <__ctors_end>
   4:	0c 94 47 00 	jmp	0x8e	; 0x8e <__bad_interrupt>
   8:	0c 94 47 00 	jmp	0x8e	; 0x8e <__bad_interrupt>
   c:	0c 94 47 00 	jmp	0x8e	; 0x8e <__bad_interrupt>
  10:	0c 94 47 00 	jmp	0x8e	; 0x8e <__bad_interrupt>
  14:	0c 94 47 00 	jmp	0x8e	; 0x8e <__bad_interrupt>
  18:	0c 94 47 00 	jmp	0x8e	; 0x8e <__bad_interrupt>
  1c:	0c 94 47 00 	jmp	0x8e	; 0x8e <__bad_interrupt>
  20:	0c 94 47 00 	jmp	0x8e	; 0x8e <__bad_interrupt>
  24:	0c 94 47 00 	jmp	0x8e	; 0x8e <__bad_interrupt>
  28:	0c 94 47 00 	jmp	0x8e	; 0x8e <__bad_interrupt>
  2c:	0c 94 47 00 	jmp	0x8e	; 0x8e <__bad_interrupt>
  30:	0c 94 47 00 	jmp	0x8e	; 0x8e <__bad_interrupt>
  34:	0c 94 47 00 	jmp	0x8e	; 0x8e <__bad_interrupt>
  38:	0c 94 47 00 	jmp	0x8e	; 0x8e <__bad_interrupt>
  3c:	0c 94 47 00 	jmp	0x8e	; 0x8e <__bad_interrupt>
  40:	0c 94 47 00 	jmp	0x8e	; 0x8e <__bad_interrupt>
  44:	0c 94 47 00 	jmp	0x8e	; 0x8e <__bad_interrupt>
  48:	0c 94 47 00 	jmp	0x8e	; 0x8e <__bad_interrupt>
  4c:	0c 94 47 00 	jmp	0x8e	; 0x8e <__bad_interrupt>
  50:	0c 94 47 00 	jmp	0x8e	; 0x8e <__bad_interrupt>

00000054 <__ctors_end>:
  54:	11 24       	eor	r1, r1
  56:	1f be       	out	0x3f, r1	; 63
  58:	cf e5       	ldi	r28, 0x5F	; 95
  5a:	d8 e0       	ldi	r29, 0x08	; 8
  5c:	de bf       	out	0x3e, r29	; 62
  5e:	cd bf       	out	0x3d, r28	; 61

00000060 <__do_copy_data>:
  60:	10 e0       	ldi	r17, 0x00	; 0
  62:	a0 e6       	ldi	r26, 0x60	; 96
  64:	b0 e0       	ldi	r27, 0x00	; 0
  66:	e2 eb       	ldi	r30, 0xB2	; 178
  68:	f5 e0       	ldi	r31, 0x05	; 5
  6a:	02 c0       	rjmp	.+4      	; 0x70 <__do_copy_data+0x10>
  6c:	05 90       	lpm	r0, Z+
  6e:	0d 92       	st	X+, r0
  70:	ae 38       	cpi	r26, 0x8E	; 142
  72:	b1 07       	cpc	r27, r17
  74:	d9 f7       	brne	.-10     	; 0x6c <__do_copy_data+0xc>

00000076 <__do_clear_bss>:
  76:	20 e0       	ldi	r18, 0x00	; 0
  78:	ae e8       	ldi	r26, 0x8E	; 142
  7a:	b0 e0       	ldi	r27, 0x00	; 0
  7c:	01 c0       	rjmp	.+2      	; 0x80 <.do_clear_bss_start>

0000007e <.do_clear_bss_loop>:
  7e:	1d 92       	st	X+, r1

00000080 <.do_clear_bss_start>:
  80:	af 38       	cpi	r26, 0x8F	; 143
  82:	b2 07       	cpc	r27, r18
  84:	e1 f7       	brne	.-8      	; 0x7e <.do_clear_bss_loop>
  86:	0e 94 eb 00 	call	0x1d6	; 0x1d6 <main>
  8a:	0c 94 d7 02 	jmp	0x5ae	; 0x5ae <_exit>

0000008e <__bad_interrupt>:
  8e:	0c 94 00 00 	jmp	0	; 0x0 <__vectors>

00000092 <LCD_SendCommand>:
  92:	68 2f       	mov	r22, r24
  94:	83 e0       	ldi	r24, 0x03	; 3
  96:	0e 94 b4 02 	call	0x568	; 0x568 <DIO_WritePort>
  9a:	60 e0       	ldi	r22, 0x00	; 0
  9c:	8a e0       	ldi	r24, 0x0A	; 10
  9e:	0e 94 33 02 	call	0x466	; 0x466 <DIO_WritePin>
  a2:	60 e0       	ldi	r22, 0x00	; 0
  a4:	89 e0       	ldi	r24, 0x09	; 9
  a6:	0e 94 33 02 	call	0x466	; 0x466 <DIO_WritePin>
  aa:	61 e0       	ldi	r22, 0x01	; 1
  ac:	88 e0       	ldi	r24, 0x08	; 8
  ae:	0e 94 33 02 	call	0x466	; 0x466 <DIO_WritePin>
  b2:	8f ec       	ldi	r24, 0xCF	; 207
  b4:	97 e0       	ldi	r25, 0x07	; 7
  b6:	01 97       	sbiw	r24, 0x01	; 1
  b8:	f1 f7       	brne	.-4      	; 0xb6 <LCD_SendCommand+0x24>
  ba:	00 c0       	rjmp	.+0      	; 0xbc <LCD_SendCommand+0x2a>
  bc:	00 00       	nop
  be:	60 e0       	ldi	r22, 0x00	; 0
  c0:	88 e0       	ldi	r24, 0x08	; 8
  c2:	0e 94 33 02 	call	0x466	; 0x466 <DIO_WritePin>
  c6:	8f ec       	ldi	r24, 0xCF	; 207
  c8:	97 e0       	ldi	r25, 0x07	; 7
  ca:	01 97       	sbiw	r24, 0x01	; 1
  cc:	f1 f7       	brne	.-4      	; 0xca <LCD_SendCommand+0x38>
  ce:	00 c0       	rjmp	.+0      	; 0xd0 <LCD_SendCommand+0x3e>
  d0:	00 00       	nop
  d2:	08 95       	ret

000000d4 <LCD_SendData>:
  d4:	68 2f       	mov	r22, r24
  d6:	83 e0       	ldi	r24, 0x03	; 3
  d8:	0e 94 b4 02 	call	0x568	; 0x568 <DIO_WritePort>
  dc:	61 e0       	ldi	r22, 0x01	; 1
  de:	8a e0       	ldi	r24, 0x0A	; 10
  e0:	0e 94 33 02 	call	0x466	; 0x466 <DIO_WritePin>
  e4:	60 e0       	ldi	r22, 0x00	; 0
  e6:	89 e0       	ldi	r24, 0x09	; 9
  e8:	0e 94 33 02 	call	0x466	; 0x466 <DIO_WritePin>
  ec:	61 e0       	ldi	r22, 0x01	; 1
  ee:	88 e0       	ldi	r24, 0x08	; 8
  f0:	0e 94 33 02 	call	0x466	; 0x466 <DIO_WritePin>
  f4:	8f ec       	ldi	r24, 0xCF	; 207
  f6:	97 e0       	ldi	r25, 0x07	; 7
  f8:	01 97       	sbiw	r24, 0x01	; 1
  fa:	f1 f7       	brne	.-4      	; 0xf8 <LCD_SendData+0x24>
  fc:	00 c0       	rjmp	.+0      	; 0xfe <LCD_SendData+0x2a>
  fe:	00 00       	nop
 100:	60 e0       	ldi	r22, 0x00	; 0
 102:	88 e0       	ldi	r24, 0x08	; 8
 104:	0e 94 33 02 	call	0x466	; 0x466 <DIO_WritePin>
 108:	8f ec       	ldi	r24, 0xCF	; 207
 10a:	97 e0       	ldi	r25, 0x07	; 7
 10c:	01 97       	sbiw	r24, 0x01	; 1
 10e:	f1 f7       	brne	.-4      	; 0x10c <LCD_SendData+0x38>
 110:	00 c0       	rjmp	.+0      	; 0x112 <LCD_SendData+0x3e>
 112:	00 00       	nop
 114:	08 95       	ret

00000116 <LCD_Init>:
 116:	8f e3       	ldi	r24, 0x3F	; 63
 118:	9c e9       	ldi	r25, 0x9C	; 156
 11a:	01 97       	sbiw	r24, 0x01	; 1
 11c:	f1 f7       	brne	.-4      	; 0x11a <LCD_Init+0x4>
 11e:	00 c0       	rjmp	.+0      	; 0x120 <LCD_Init+0xa>
 120:	00 00       	nop
 122:	88 e3       	ldi	r24, 0x38	; 56
 124:	0e 94 49 00 	call	0x92	; 0x92 <LCD_SendCommand>
 128:	8c e0       	ldi	r24, 0x0C	; 12
 12a:	0e 94 49 00 	call	0x92	; 0x92 <LCD_SendCommand>
 12e:	81 e0       	ldi	r24, 0x01	; 1
 130:	0e 94 49 00 	call	0x92	; 0x92 <LCD_SendCommand>
 134:	8f e9       	ldi	r24, 0x9F	; 159
 136:	9f e0       	ldi	r25, 0x0F	; 15
 138:	01 97       	sbiw	r24, 0x01	; 1
 13a:	f1 f7       	brne	.-4      	; 0x138 <LCD_Init+0x22>
 13c:	00 c0       	rjmp	.+0      	; 0x13e <LCD_Init+0x28>
 13e:	00 00       	nop
 140:	08 95       	ret

00000142 <LCD_WriteChar>:
 142:	0c 94 6a 00 	jmp	0xd4	; 0xd4 <LCD_SendData>

00000146 <LCD_WriteString>:
 146:	0f 93       	push	r16
 148:	1f 93       	push	r17
 14a:	cf 93       	push	r28
 14c:	8c 01       	movw	r16, r24
 14e:	c0 e0       	ldi	r28, 0x00	; 0
 150:	f8 01       	movw	r30, r16
 152:	ec 0f       	add	r30, r28
 154:	f1 1d       	adc	r31, r1
 156:	80 81       	ld	r24, Z
 158:	88 23       	and	r24, r24
 15a:	21 f0       	breq	.+8      	; 0x164 <LCD_WriteString+0x1e>
 15c:	0e 94 6a 00 	call	0xd4	; 0xd4 <LCD_SendData>
 160:	cf 5f       	subi	r28, 0xFF	; 255
 162:	f6 cf       	rjmp	.-20     	; 0x150 <LCD_WriteString+0xa>
 164:	cf 91       	pop	r28
 166:	1f 91       	pop	r17
 168:	0f 91       	pop	r16
 16a:	08 95       	ret

0000016c <LCD_GoTo>:
 16c:	81 30       	cpi	r24, 0x01	; 1
 16e:	39 f0       	breq	.+14     	; 0x17e <LCD_GoTo+0x12>
 170:	58 f0       	brcs	.+22     	; 0x188 <LCD_GoTo+0x1c>
 172:	82 30       	cpi	r24, 0x02	; 2
 174:	31 f0       	breq	.+12     	; 0x182 <LCD_GoTo+0x16>
 176:	83 30       	cpi	r24, 0x03	; 3
 178:	31 f4       	brne	.+12     	; 0x186 <LCD_GoTo+0x1a>
 17a:	6c 5a       	subi	r22, 0xAC	; 172
 17c:	05 c0       	rjmp	.+10     	; 0x188 <LCD_GoTo+0x1c>
 17e:	60 5c       	subi	r22, 0xC0	; 192
 180:	03 c0       	rjmp	.+6      	; 0x188 <LCD_GoTo+0x1c>
 182:	6c 5e       	subi	r22, 0xEC	; 236
 184:	01 c0       	rjmp	.+2      	; 0x188 <LCD_GoTo+0x1c>
 186:	60 e0       	ldi	r22, 0x00	; 0
 188:	86 2f       	mov	r24, r22
 18a:	80 68       	ori	r24, 0x80	; 128
 18c:	0c 94 49 00 	jmp	0x92	; 0x92 <LCD_SendCommand>

00000190 <volume_diff>:
 190:	0f 93       	push	r16
 192:	1f 93       	push	r17
 194:	cf 93       	push	r28
 196:	df 93       	push	r29
 198:	8c 01       	movw	r16, r24
 19a:	eb 01       	movw	r28, r22
 19c:	80 e0       	ldi	r24, 0x00	; 0
 19e:	0e 94 51 01 	call	0x2a2	; 0x2a2 <ADC_Read>
 1a2:	24 e1       	ldi	r18, 0x14	; 20
 1a4:	ac 01       	movw	r20, r24
 1a6:	24 9f       	mul	r18, r20
 1a8:	c0 01       	movw	r24, r0
 1aa:	25 9f       	mul	r18, r21
 1ac:	90 0d       	add	r25, r0
 1ae:	11 24       	eor	r1, r1
 1b0:	80 91 8e 00 	lds	r24, 0x008E	; 0x80008e <__data_end>
 1b4:	f8 01       	movw	r30, r16
 1b6:	80 83       	st	Z, r24
 1b8:	89 2f       	mov	r24, r25
 1ba:	86 95       	lsr	r24
 1bc:	86 95       	lsr	r24
 1be:	83 31       	cpi	r24, 0x13	; 19
 1c0:	11 f0       	breq	.+4      	; 0x1c6 <volume_diff+0x36>
 1c2:	88 83       	st	Y, r24
 1c4:	01 c0       	rjmp	.+2      	; 0x1c8 <volume_diff+0x38>
 1c6:	28 83       	st	Y, r18
 1c8:	80 93 8e 00 	sts	0x008E, r24	; 0x80008e <__data_end>
 1cc:	df 91       	pop	r29
 1ce:	cf 91       	pop	r28
 1d0:	1f 91       	pop	r17
 1d2:	0f 91       	pop	r16
 1d4:	08 95       	ret

000001d6 <main>:
 1d6:	cf 93       	push	r28
 1d8:	df 93       	push	r29
 1da:	00 d0       	rcall	.+0      	; 0x1dc <main+0x6>
 1dc:	cd b7       	in	r28, 0x3d	; 61
 1de:	de b7       	in	r29, 0x3e	; 62
 1e0:	1a 82       	std	Y+2, r1	; 0x02
 1e2:	19 82       	std	Y+1, r1	; 0x01
 1e4:	0e 94 c4 02 	call	0x588	; 0x588 <DIO_Init>
 1e8:	0e 94 8b 00 	call	0x116	; 0x116 <LCD_Init>
 1ec:	66 e0       	ldi	r22, 0x06	; 6
 1ee:	80 e0       	ldi	r24, 0x00	; 0
 1f0:	0e 94 3c 01 	call	0x278	; 0x278 <ADC_Init>
 1f4:	80 e6       	ldi	r24, 0x60	; 96
 1f6:	90 e0       	ldi	r25, 0x00	; 0
 1f8:	0e 94 a3 00 	call	0x146	; 0x146 <LCD_WriteString>
 1fc:	60 e0       	ldi	r22, 0x00	; 0
 1fe:	82 e0       	ldi	r24, 0x02	; 2
 200:	0e 94 b6 00 	call	0x16c	; 0x16c <LCD_GoTo>
 204:	be 01       	movw	r22, r28
 206:	6f 5f       	subi	r22, 0xFF	; 255
 208:	7f 4f       	sbci	r23, 0xFF	; 255
 20a:	ce 01       	movw	r24, r28
 20c:	02 96       	adiw	r24, 0x02	; 2
 20e:	0e 94 c8 00 	call	0x190	; 0x190 <volume_diff>
 212:	99 81       	ldd	r25, Y+1	; 0x01
 214:	8a 81       	ldd	r24, Y+2	; 0x02
 216:	89 17       	cp	r24, r25
 218:	98 f4       	brcc	.+38     	; 0x240 <main+0x6a>
 21a:	19 2f       	mov	r17, r25
 21c:	18 1b       	sub	r17, r24
 21e:	00 e0       	ldi	r16, 0x00	; 0
 220:	8f ef       	ldi	r24, 0xFF	; 255
 222:	0e 94 a1 00 	call	0x142	; 0x142 <LCD_WriteChar>
 226:	2f ef       	ldi	r18, 0xFF	; 255
 228:	81 ee       	ldi	r24, 0xE1	; 225
 22a:	94 e0       	ldi	r25, 0x04	; 4
 22c:	21 50       	subi	r18, 0x01	; 1
 22e:	80 40       	sbci	r24, 0x00	; 0
 230:	90 40       	sbci	r25, 0x00	; 0
 232:	e1 f7       	brne	.-8      	; 0x22c <main+0x56>
 234:	00 c0       	rjmp	.+0      	; 0x236 <main+0x60>
 236:	00 00       	nop
 238:	0f 5f       	subi	r16, 0xFF	; 255
 23a:	10 13       	cpse	r17, r16
 23c:	f1 cf       	rjmp	.-30     	; 0x220 <main+0x4a>
 23e:	e2 cf       	rjmp	.-60     	; 0x204 <main+0x2e>
 240:	98 17       	cp	r25, r24
 242:	00 f7       	brcc	.-64     	; 0x204 <main+0x2e>
 244:	18 2f       	mov	r17, r24
 246:	19 1b       	sub	r17, r25
 248:	00 e0       	ldi	r16, 0x00	; 0
 24a:	6a 81       	ldd	r22, Y+2	; 0x02
 24c:	60 1b       	sub	r22, r16
 24e:	82 e0       	ldi	r24, 0x02	; 2
 250:	0e 94 b6 00 	call	0x16c	; 0x16c <LCD_GoTo>
 254:	80 e0       	ldi	r24, 0x00	; 0
 256:	0e 94 a1 00 	call	0x142	; 0x142 <LCD_WriteChar>
 25a:	2f ef       	ldi	r18, 0xFF	; 255
 25c:	81 ee       	ldi	r24, 0xE1	; 225
 25e:	94 e0       	ldi	r25, 0x04	; 4
 260:	21 50       	subi	r18, 0x01	; 1
 262:	80 40       	sbci	r24, 0x00	; 0
 264:	90 40       	sbci	r25, 0x00	; 0
 266:	e1 f7       	brne	.-8      	; 0x260 <main+0x8a>
 268:	00 c0       	rjmp	.+0      	; 0x26a <main+0x94>
 26a:	00 00       	nop
 26c:	0f 5f       	subi	r16, 0xFF	; 255
 26e:	10 17       	cp	r17, r16
 270:	60 f7       	brcc	.-40     	; 0x24a <main+0x74>
 272:	6a 81       	ldd	r22, Y+2	; 0x02
 274:	61 1b       	sub	r22, r17
 276:	c3 cf       	rjmp	.-122    	; 0x1fe <main+0x28>

00000278 <ADC_Init>:
 278:	81 30       	cpi	r24, 0x01	; 1
 27a:	41 f0       	breq	.+16     	; 0x28c <ADC_Init+0x14>
 27c:	28 f0       	brcs	.+10     	; 0x288 <ADC_Init+0x10>
 27e:	82 30       	cpi	r24, 0x02	; 2
 280:	39 f4       	brne	.+14     	; 0x290 <ADC_Init+0x18>
 282:	3e 9a       	sbi	0x07, 6	; 7
 284:	3f 9a       	sbi	0x07, 7	; 7
 286:	04 c0       	rjmp	.+8      	; 0x290 <ADC_Init+0x18>
 288:	3e 98       	cbi	0x07, 6	; 7
 28a:	01 c0       	rjmp	.+2      	; 0x28e <ADC_Init+0x16>
 28c:	3e 9a       	sbi	0x07, 6	; 7
 28e:	3f 98       	cbi	0x07, 7	; 7
 290:	86 b1       	in	r24, 0x06	; 6
 292:	88 7f       	andi	r24, 0xF8	; 248
 294:	86 b9       	out	0x06, r24	; 6
 296:	86 b1       	in	r24, 0x06	; 6
 298:	68 2b       	or	r22, r24
 29a:	66 b9       	out	0x06, r22	; 6
 29c:	3d 98       	cbi	0x07, 5	; 7
 29e:	37 9a       	sbi	0x06, 7	; 6
 2a0:	08 95       	ret

000002a2 <ADC_Read>:
 2a2:	97 b1       	in	r25, 0x07	; 7
 2a4:	90 7e       	andi	r25, 0xE0	; 224
 2a6:	97 b9       	out	0x07, r25	; 7
 2a8:	97 b1       	in	r25, 0x07	; 7
 2aa:	8f 71       	andi	r24, 0x1F	; 31
 2ac:	98 2b       	or	r25, r24
 2ae:	97 b9       	out	0x07, r25	; 7
 2b0:	36 9a       	sbi	0x06, 6	; 6
 2b2:	36 99       	sbic	0x06, 6	; 6
 2b4:	fe cf       	rjmp	.-4      	; 0x2b2 <ADC_Read+0x10>
 2b6:	84 b1       	in	r24, 0x04	; 4
 2b8:	95 b1       	in	r25, 0x05	; 5
 2ba:	93 70       	andi	r25, 0x03	; 3
 2bc:	08 95       	ret

000002be <DIO_InitPin>:
 2be:	98 2f       	mov	r25, r24
 2c0:	97 70       	andi	r25, 0x07	; 7
 2c2:	86 95       	lsr	r24
 2c4:	86 95       	lsr	r24
 2c6:	86 95       	lsr	r24
 2c8:	61 30       	cpi	r22, 0x01	; 1
 2ca:	e9 f1       	breq	.+122    	; 0x346 <DIO_InitPin+0x88>
 2cc:	20 f0       	brcs	.+8      	; 0x2d6 <DIO_InitPin+0x18>
 2ce:	62 30       	cpi	r22, 0x02	; 2
 2d0:	09 f4       	brne	.+2      	; 0x2d4 <DIO_InitPin+0x16>
 2d2:	79 c0       	rjmp	.+242    	; 0x3c6 <DIO_InitPin+0x108>
 2d4:	08 95       	ret
 2d6:	81 30       	cpi	r24, 0x01	; 1
 2d8:	91 f0       	breq	.+36     	; 0x2fe <DIO_InitPin+0x40>
 2da:	28 f0       	brcs	.+10     	; 0x2e6 <DIO_InitPin+0x28>
 2dc:	82 30       	cpi	r24, 0x02	; 2
 2de:	d9 f0       	breq	.+54     	; 0x316 <DIO_InitPin+0x58>
 2e0:	83 30       	cpi	r24, 0x03	; 3
 2e2:	29 f1       	breq	.+74     	; 0x32e <DIO_InitPin+0x70>
 2e4:	08 95       	ret
 2e6:	4a b3       	in	r20, 0x1a	; 26
 2e8:	21 e0       	ldi	r18, 0x01	; 1
 2ea:	30 e0       	ldi	r19, 0x00	; 0
 2ec:	b9 01       	movw	r22, r18
 2ee:	02 c0       	rjmp	.+4      	; 0x2f4 <DIO_InitPin+0x36>
 2f0:	66 0f       	add	r22, r22
 2f2:	77 1f       	adc	r23, r23
 2f4:	9a 95       	dec	r25
 2f6:	e2 f7       	brpl	.-8      	; 0x2f0 <DIO_InitPin+0x32>
 2f8:	cb 01       	movw	r24, r22
 2fa:	84 2b       	or	r24, r20
 2fc:	38 c0       	rjmp	.+112    	; 0x36e <DIO_InitPin+0xb0>
 2fe:	47 b3       	in	r20, 0x17	; 23
 300:	21 e0       	ldi	r18, 0x01	; 1
 302:	30 e0       	ldi	r19, 0x00	; 0
 304:	b9 01       	movw	r22, r18
 306:	02 c0       	rjmp	.+4      	; 0x30c <DIO_InitPin+0x4e>
 308:	66 0f       	add	r22, r22
 30a:	77 1f       	adc	r23, r23
 30c:	9a 95       	dec	r25
 30e:	e2 f7       	brpl	.-8      	; 0x308 <DIO_InitPin+0x4a>
 310:	cb 01       	movw	r24, r22
 312:	84 2b       	or	r24, r20
 314:	3a c0       	rjmp	.+116    	; 0x38a <DIO_InitPin+0xcc>
 316:	44 b3       	in	r20, 0x14	; 20
 318:	21 e0       	ldi	r18, 0x01	; 1
 31a:	30 e0       	ldi	r19, 0x00	; 0
 31c:	b9 01       	movw	r22, r18
 31e:	02 c0       	rjmp	.+4      	; 0x324 <DIO_InitPin+0x66>
 320:	66 0f       	add	r22, r22
 322:	77 1f       	adc	r23, r23
 324:	9a 95       	dec	r25
 326:	e2 f7       	brpl	.-8      	; 0x320 <DIO_InitPin+0x62>
 328:	cb 01       	movw	r24, r22
 32a:	84 2b       	or	r24, r20
 32c:	3c c0       	rjmp	.+120    	; 0x3a6 <DIO_InitPin+0xe8>
 32e:	41 b3       	in	r20, 0x11	; 17
 330:	21 e0       	ldi	r18, 0x01	; 1
 332:	30 e0       	ldi	r19, 0x00	; 0
 334:	b9 01       	movw	r22, r18
 336:	02 c0       	rjmp	.+4      	; 0x33c <DIO_InitPin+0x7e>
 338:	66 0f       	add	r22, r22
 33a:	77 1f       	adc	r23, r23
 33c:	9a 95       	dec	r25
 33e:	e2 f7       	brpl	.-8      	; 0x338 <DIO_InitPin+0x7a>
 340:	cb 01       	movw	r24, r22
 342:	84 2b       	or	r24, r20
 344:	3e c0       	rjmp	.+124    	; 0x3c2 <DIO_InitPin+0x104>
 346:	81 30       	cpi	r24, 0x01	; 1
 348:	a1 f0       	breq	.+40     	; 0x372 <DIO_InitPin+0xb4>
 34a:	28 f0       	brcs	.+10     	; 0x356 <DIO_InitPin+0x98>
 34c:	82 30       	cpi	r24, 0x02	; 2
 34e:	f9 f0       	breq	.+62     	; 0x38e <DIO_InitPin+0xd0>
 350:	83 30       	cpi	r24, 0x03	; 3
 352:	59 f1       	breq	.+86     	; 0x3aa <DIO_InitPin+0xec>
 354:	08 95       	ret
 356:	4a b3       	in	r20, 0x1a	; 26
 358:	21 e0       	ldi	r18, 0x01	; 1
 35a:	30 e0       	ldi	r19, 0x00	; 0
 35c:	b9 01       	movw	r22, r18
 35e:	02 c0       	rjmp	.+4      	; 0x364 <DIO_InitPin+0xa6>
 360:	66 0f       	add	r22, r22
 362:	77 1f       	adc	r23, r23
 364:	9a 95       	dec	r25
 366:	e2 f7       	brpl	.-8      	; 0x360 <DIO_InitPin+0xa2>
 368:	cb 01       	movw	r24, r22
 36a:	80 95       	com	r24
 36c:	84 23       	and	r24, r20
 36e:	8a bb       	out	0x1a, r24	; 26
 370:	08 95       	ret
 372:	47 b3       	in	r20, 0x17	; 23
 374:	21 e0       	ldi	r18, 0x01	; 1
 376:	30 e0       	ldi	r19, 0x00	; 0
 378:	b9 01       	movw	r22, r18
 37a:	02 c0       	rjmp	.+4      	; 0x380 <DIO_InitPin+0xc2>
 37c:	66 0f       	add	r22, r22
 37e:	77 1f       	adc	r23, r23
 380:	9a 95       	dec	r25
 382:	e2 f7       	brpl	.-8      	; 0x37c <DIO_InitPin+0xbe>
 384:	cb 01       	movw	r24, r22
 386:	80 95       	com	r24
 388:	84 23       	and	r24, r20
 38a:	87 bb       	out	0x17, r24	; 23
 38c:	08 95       	ret
 38e:	44 b3       	in	r20, 0x14	; 20
 390:	21 e0       	ldi	r18, 0x01	; 1
 392:	30 e0       	ldi	r19, 0x00	; 0
 394:	b9 01       	movw	r22, r18
 396:	02 c0       	rjmp	.+4      	; 0x39c <DIO_InitPin+0xde>
 398:	66 0f       	add	r22, r22
 39a:	77 1f       	adc	r23, r23
 39c:	9a 95       	dec	r25
 39e:	e2 f7       	brpl	.-8      	; 0x398 <DIO_InitPin+0xda>
 3a0:	cb 01       	movw	r24, r22
 3a2:	80 95       	com	r24
 3a4:	84 23       	and	r24, r20
 3a6:	84 bb       	out	0x14, r24	; 20
 3a8:	08 95       	ret
 3aa:	41 b3       	in	r20, 0x11	; 17
 3ac:	21 e0       	ldi	r18, 0x01	; 1
 3ae:	30 e0       	ldi	r19, 0x00	; 0
 3b0:	b9 01       	movw	r22, r18
 3b2:	02 c0       	rjmp	.+4      	; 0x3b8 <DIO_InitPin+0xfa>
 3b4:	66 0f       	add	r22, r22
 3b6:	77 1f       	adc	r23, r23
 3b8:	9a 95       	dec	r25
 3ba:	e2 f7       	brpl	.-8      	; 0x3b4 <DIO_InitPin+0xf6>
 3bc:	cb 01       	movw	r24, r22
 3be:	80 95       	com	r24
 3c0:	84 23       	and	r24, r20
 3c2:	81 bb       	out	0x11, r24	; 17
 3c4:	08 95       	ret
 3c6:	81 30       	cpi	r24, 0x01	; 1
 3c8:	c1 f0       	breq	.+48     	; 0x3fa <DIO_InitPin+0x13c>
 3ca:	28 f0       	brcs	.+10     	; 0x3d6 <DIO_InitPin+0x118>
 3cc:	82 30       	cpi	r24, 0x02	; 2
 3ce:	39 f1       	breq	.+78     	; 0x41e <__LOCK_REGION_LENGTH__+0x1e>
 3d0:	83 30       	cpi	r24, 0x03	; 3
 3d2:	b9 f1       	breq	.+110    	; 0x442 <__LOCK_REGION_LENGTH__+0x42>
 3d4:	08 95       	ret
 3d6:	4a b3       	in	r20, 0x1a	; 26
 3d8:	21 e0       	ldi	r18, 0x01	; 1
 3da:	30 e0       	ldi	r19, 0x00	; 0
 3dc:	b9 01       	movw	r22, r18
 3de:	02 c0       	rjmp	.+4      	; 0x3e4 <DIO_InitPin+0x126>
 3e0:	66 0f       	add	r22, r22
 3e2:	77 1f       	adc	r23, r23
 3e4:	9a 95       	dec	r25
 3e6:	e2 f7       	brpl	.-8      	; 0x3e0 <DIO_InitPin+0x122>
 3e8:	cb 01       	movw	r24, r22
 3ea:	96 2f       	mov	r25, r22
 3ec:	90 95       	com	r25
 3ee:	94 23       	and	r25, r20
 3f0:	9a bb       	out	0x1a, r25	; 26
 3f2:	9b b3       	in	r25, 0x1b	; 27
 3f4:	89 2b       	or	r24, r25
 3f6:	8b bb       	out	0x1b, r24	; 27
 3f8:	08 95       	ret
 3fa:	47 b3       	in	r20, 0x17	; 23
 3fc:	21 e0       	ldi	r18, 0x01	; 1
 3fe:	30 e0       	ldi	r19, 0x00	; 0
 400:	b9 01       	movw	r22, r18
 402:	02 c0       	rjmp	.+4      	; 0x408 <__LOCK_REGION_LENGTH__+0x8>
 404:	66 0f       	add	r22, r22
 406:	77 1f       	adc	r23, r23
 408:	9a 95       	dec	r25
 40a:	e2 f7       	brpl	.-8      	; 0x404 <__LOCK_REGION_LENGTH__+0x4>
 40c:	cb 01       	movw	r24, r22
 40e:	96 2f       	mov	r25, r22
 410:	90 95       	com	r25
 412:	94 23       	and	r25, r20
 414:	97 bb       	out	0x17, r25	; 23
 416:	98 b3       	in	r25, 0x18	; 24
 418:	89 2b       	or	r24, r25
 41a:	88 bb       	out	0x18, r24	; 24
 41c:	08 95       	ret
 41e:	44 b3       	in	r20, 0x14	; 20
 420:	21 e0       	ldi	r18, 0x01	; 1
 422:	30 e0       	ldi	r19, 0x00	; 0
 424:	b9 01       	movw	r22, r18
 426:	02 c0       	rjmp	.+4      	; 0x42c <__LOCK_REGION_LENGTH__+0x2c>
 428:	66 0f       	add	r22, r22
 42a:	77 1f       	adc	r23, r23
 42c:	9a 95       	dec	r25
 42e:	e2 f7       	brpl	.-8      	; 0x428 <__LOCK_REGION_LENGTH__+0x28>
 430:	cb 01       	movw	r24, r22
 432:	96 2f       	mov	r25, r22
 434:	90 95       	com	r25
 436:	94 23       	and	r25, r20
 438:	94 bb       	out	0x14, r25	; 20
 43a:	95 b3       	in	r25, 0x15	; 21
 43c:	89 2b       	or	r24, r25
 43e:	85 bb       	out	0x15, r24	; 21
 440:	08 95       	ret
 442:	41 b3       	in	r20, 0x11	; 17
 444:	21 e0       	ldi	r18, 0x01	; 1
 446:	30 e0       	ldi	r19, 0x00	; 0
 448:	b9 01       	movw	r22, r18
 44a:	02 c0       	rjmp	.+4      	; 0x450 <__LOCK_REGION_LENGTH__+0x50>
 44c:	66 0f       	add	r22, r22
 44e:	77 1f       	adc	r23, r23
 450:	9a 95       	dec	r25
 452:	e2 f7       	brpl	.-8      	; 0x44c <__LOCK_REGION_LENGTH__+0x4c>
 454:	cb 01       	movw	r24, r22
 456:	96 2f       	mov	r25, r22
 458:	90 95       	com	r25
 45a:	94 23       	and	r25, r20
 45c:	91 bb       	out	0x11, r25	; 17
 45e:	92 b3       	in	r25, 0x12	; 18
 460:	89 2b       	or	r24, r25
 462:	82 bb       	out	0x12, r24	; 18
 464:	08 95       	ret

00000466 <DIO_WritePin>:
 466:	98 2f       	mov	r25, r24
 468:	97 70       	andi	r25, 0x07	; 7
 46a:	86 95       	lsr	r24
 46c:	86 95       	lsr	r24
 46e:	86 95       	lsr	r24
 470:	61 30       	cpi	r22, 0x01	; 1
 472:	c1 f5       	brne	.+112    	; 0x4e4 <DIO_WritePin+0x7e>
 474:	81 30       	cpi	r24, 0x01	; 1
 476:	91 f0       	breq	.+36     	; 0x49c <DIO_WritePin+0x36>
 478:	28 f0       	brcs	.+10     	; 0x484 <DIO_WritePin+0x1e>
 47a:	82 30       	cpi	r24, 0x02	; 2
 47c:	d9 f0       	breq	.+54     	; 0x4b4 <DIO_WritePin+0x4e>
 47e:	83 30       	cpi	r24, 0x03	; 3
 480:	29 f1       	breq	.+74     	; 0x4cc <DIO_WritePin+0x66>
 482:	08 95       	ret
 484:	4b b3       	in	r20, 0x1b	; 27
 486:	21 e0       	ldi	r18, 0x01	; 1
 488:	30 e0       	ldi	r19, 0x00	; 0
 48a:	b9 01       	movw	r22, r18
 48c:	02 c0       	rjmp	.+4      	; 0x492 <DIO_WritePin+0x2c>
 48e:	66 0f       	add	r22, r22
 490:	77 1f       	adc	r23, r23
 492:	9a 95       	dec	r25
 494:	e2 f7       	brpl	.-8      	; 0x48e <DIO_WritePin+0x28>
 496:	cb 01       	movw	r24, r22
 498:	84 2b       	or	r24, r20
 49a:	3a c0       	rjmp	.+116    	; 0x510 <DIO_WritePin+0xaa>
 49c:	48 b3       	in	r20, 0x18	; 24
 49e:	21 e0       	ldi	r18, 0x01	; 1
 4a0:	30 e0       	ldi	r19, 0x00	; 0
 4a2:	b9 01       	movw	r22, r18
 4a4:	02 c0       	rjmp	.+4      	; 0x4aa <DIO_WritePin+0x44>
 4a6:	66 0f       	add	r22, r22
 4a8:	77 1f       	adc	r23, r23
 4aa:	9a 95       	dec	r25
 4ac:	e2 f7       	brpl	.-8      	; 0x4a6 <DIO_WritePin+0x40>
 4ae:	cb 01       	movw	r24, r22
 4b0:	84 2b       	or	r24, r20
 4b2:	3c c0       	rjmp	.+120    	; 0x52c <DIO_WritePin+0xc6>
 4b4:	45 b3       	in	r20, 0x15	; 21
 4b6:	21 e0       	ldi	r18, 0x01	; 1
 4b8:	30 e0       	ldi	r19, 0x00	; 0
 4ba:	b9 01       	movw	r22, r18
 4bc:	02 c0       	rjmp	.+4      	; 0x4c2 <DIO_WritePin+0x5c>
 4be:	66 0f       	add	r22, r22
 4c0:	77 1f       	adc	r23, r23
 4c2:	9a 95       	dec	r25
 4c4:	e2 f7       	brpl	.-8      	; 0x4be <DIO_WritePin+0x58>
 4c6:	cb 01       	movw	r24, r22
 4c8:	84 2b       	or	r24, r20
 4ca:	3e c0       	rjmp	.+124    	; 0x548 <DIO_WritePin+0xe2>
 4cc:	42 b3       	in	r20, 0x12	; 18
 4ce:	21 e0       	ldi	r18, 0x01	; 1
 4d0:	30 e0       	ldi	r19, 0x00	; 0
 4d2:	b9 01       	movw	r22, r18
 4d4:	02 c0       	rjmp	.+4      	; 0x4da <DIO_WritePin+0x74>
 4d6:	66 0f       	add	r22, r22
 4d8:	77 1f       	adc	r23, r23
 4da:	9a 95       	dec	r25
 4dc:	e2 f7       	brpl	.-8      	; 0x4d6 <DIO_WritePin+0x70>
 4de:	cb 01       	movw	r24, r22
 4e0:	84 2b       	or	r24, r20
 4e2:	40 c0       	rjmp	.+128    	; 0x564 <DIO_WritePin+0xfe>
 4e4:	61 11       	cpse	r22, r1
 4e6:	3f c0       	rjmp	.+126    	; 0x566 <DIO_WritePin+0x100>
 4e8:	81 30       	cpi	r24, 0x01	; 1
 4ea:	a1 f0       	breq	.+40     	; 0x514 <DIO_WritePin+0xae>
 4ec:	28 f0       	brcs	.+10     	; 0x4f8 <DIO_WritePin+0x92>
 4ee:	82 30       	cpi	r24, 0x02	; 2
 4f0:	f9 f0       	breq	.+62     	; 0x530 <DIO_WritePin+0xca>
 4f2:	83 30       	cpi	r24, 0x03	; 3
 4f4:	59 f1       	breq	.+86     	; 0x54c <DIO_WritePin+0xe6>
 4f6:	08 95       	ret
 4f8:	4b b3       	in	r20, 0x1b	; 27
 4fa:	21 e0       	ldi	r18, 0x01	; 1
 4fc:	30 e0       	ldi	r19, 0x00	; 0
 4fe:	b9 01       	movw	r22, r18
 500:	02 c0       	rjmp	.+4      	; 0x506 <DIO_WritePin+0xa0>
 502:	66 0f       	add	r22, r22
 504:	77 1f       	adc	r23, r23
 506:	9a 95       	dec	r25
 508:	e2 f7       	brpl	.-8      	; 0x502 <DIO_WritePin+0x9c>
 50a:	cb 01       	movw	r24, r22
 50c:	80 95       	com	r24
 50e:	84 23       	and	r24, r20
 510:	8b bb       	out	0x1b, r24	; 27
 512:	08 95       	ret
 514:	48 b3       	in	r20, 0x18	; 24
 516:	21 e0       	ldi	r18, 0x01	; 1
 518:	30 e0       	ldi	r19, 0x00	; 0
 51a:	b9 01       	movw	r22, r18
 51c:	02 c0       	rjmp	.+4      	; 0x522 <DIO_WritePin+0xbc>
 51e:	66 0f       	add	r22, r22
 520:	77 1f       	adc	r23, r23
 522:	9a 95       	dec	r25
 524:	e2 f7       	brpl	.-8      	; 0x51e <DIO_WritePin+0xb8>
 526:	cb 01       	movw	r24, r22
 528:	80 95       	com	r24
 52a:	84 23       	and	r24, r20
 52c:	88 bb       	out	0x18, r24	; 24
 52e:	08 95       	ret
 530:	45 b3       	in	r20, 0x15	; 21
 532:	21 e0       	ldi	r18, 0x01	; 1
 534:	30 e0       	ldi	r19, 0x00	; 0
 536:	b9 01       	movw	r22, r18
 538:	02 c0       	rjmp	.+4      	; 0x53e <DIO_WritePin+0xd8>
 53a:	66 0f       	add	r22, r22
 53c:	77 1f       	adc	r23, r23
 53e:	9a 95       	dec	r25
 540:	e2 f7       	brpl	.-8      	; 0x53a <DIO_WritePin+0xd4>
 542:	cb 01       	movw	r24, r22
 544:	80 95       	com	r24
 546:	84 23       	and	r24, r20
 548:	85 bb       	out	0x15, r24	; 21
 54a:	08 95       	ret
 54c:	42 b3       	in	r20, 0x12	; 18
 54e:	21 e0       	ldi	r18, 0x01	; 1
 550:	30 e0       	ldi	r19, 0x00	; 0
 552:	b9 01       	movw	r22, r18
 554:	02 c0       	rjmp	.+4      	; 0x55a <DIO_WritePin+0xf4>
 556:	66 0f       	add	r22, r22
 558:	77 1f       	adc	r23, r23
 55a:	9a 95       	dec	r25
 55c:	e2 f7       	brpl	.-8      	; 0x556 <DIO_WritePin+0xf0>
 55e:	cb 01       	movw	r24, r22
 560:	80 95       	com	r24
 562:	84 23       	and	r24, r20
 564:	82 bb       	out	0x12, r24	; 18
 566:	08 95       	ret

00000568 <DIO_WritePort>:
 568:	81 30       	cpi	r24, 0x01	; 1
 56a:	41 f0       	breq	.+16     	; 0x57c <DIO_WritePort+0x14>
 56c:	28 f0       	brcs	.+10     	; 0x578 <DIO_WritePort+0x10>
 56e:	82 30       	cpi	r24, 0x02	; 2
 570:	39 f0       	breq	.+14     	; 0x580 <DIO_WritePort+0x18>
 572:	83 30       	cpi	r24, 0x03	; 3
 574:	39 f0       	breq	.+14     	; 0x584 <DIO_WritePort+0x1c>
 576:	08 95       	ret
 578:	6b bb       	out	0x1b, r22	; 27
 57a:	08 95       	ret
 57c:	68 bb       	out	0x18, r22	; 24
 57e:	08 95       	ret
 580:	65 bb       	out	0x15, r22	; 21
 582:	08 95       	ret
 584:	62 bb       	out	0x12, r22	; 18
 586:	08 95       	ret

00000588 <DIO_Init>:
 588:	0f 93       	push	r16
 58a:	1f 93       	push	r17
 58c:	cf 93       	push	r28
 58e:	0e e6       	ldi	r16, 0x6E	; 110
 590:	10 e0       	ldi	r17, 0x00	; 0
 592:	c0 e0       	ldi	r28, 0x00	; 0
 594:	f8 01       	movw	r30, r16
 596:	61 91       	ld	r22, Z+
 598:	8f 01       	movw	r16, r30
 59a:	8c 2f       	mov	r24, r28
 59c:	0e 94 5f 01 	call	0x2be	; 0x2be <DIO_InitPin>
 5a0:	cf 5f       	subi	r28, 0xFF	; 255
 5a2:	c0 32       	cpi	r28, 0x20	; 32
 5a4:	b9 f7       	brne	.-18     	; 0x594 <DIO_Init+0xc>
 5a6:	cf 91       	pop	r28
 5a8:	1f 91       	pop	r17
 5aa:	0f 91       	pop	r16
 5ac:	08 95       	ret

000005ae <_exit>:
 5ae:	f8 94       	cli

000005b0 <__stop_program>:
 5b0:	ff cf       	rjmp	.-2      	; 0x5b0 <__stop_program>
